Archive member included because of file (symbol)

C:/Users/lukas/AppData/Local/Rowley Associates Limited/CrossWorks for ARM/packages/lib/liblpc2000_v4t_a_le.a(liblpc2000_lpc21xx_get_cclk.o)
                              ARM Flash Release/LPC210x.o (liblpc2000_lpc21xx_get_cclk)
C:/Users/lukas/AppData/Local/Rowley Associates Limited/CrossWorks for ARM/packages/lib/liblpc2000_v4t_a_le.a(liblpc2000_lpc21xx_get_pclk.o)
                              ARM Flash Release/LPC210x.o (liblpc2000_lpc21xx_get_pclk)
C:/Program Files/Rowley Associates Limited/CrossWorks for ARM 2.0/lib/libm_v4t_a_le.a(__int32_to_float32.o)
                              ARM Flash Release/logging.o (__floatsisf)
C:/Program Files/Rowley Associates Limited/CrossWorks for ARM 2.0/lib/libm_v4t_a_le.a(__int32_to_float64.o)
                              ARM Flash Release/meas_sm.o (__floatsidf)
C:/Program Files/Rowley Associates Limited/CrossWorks for ARM 2.0/lib/libm_v4t_a_le.a(__uint32_to_float32.o)
                              ARM Flash Release/dac.o (__floatunsisf)
C:/Program Files/Rowley Associates Limited/CrossWorks for ARM 2.0/lib/libm_v4t_a_le.a(__uint32_to_float64.o)
                              ARM Flash Release/timer.o (__floatunsidf)
C:/Program Files/Rowley Associates Limited/CrossWorks for ARM 2.0/lib/libm_v4t_a_le.a(__float32_to_int32.o)
                              ARM Flash Release/logging.o (__fixsfsi)
C:/Program Files/Rowley Associates Limited/CrossWorks for ARM 2.0/lib/libm_v4t_a_le.a(__float32_to_uint32.o)
                              ARM Flash Release/dac.o (__fixunssfsi)
C:/Program Files/Rowley Associates Limited/CrossWorks for ARM 2.0/lib/libm_v4t_a_le.a(__float64_to_int32.o)
                              ARM Flash Release/meas_sm.o (__fixdfsi)
C:/Program Files/Rowley Associates Limited/CrossWorks for ARM 2.0/lib/libm_v4t_a_le.a(__float32_to_float64.o)
                              ARM Flash Release/logging.o (__extendsfdf2)
C:/Program Files/Rowley Associates Limited/CrossWorks for ARM 2.0/lib/libm_v4t_a_le.a(__float32_add.o)
                              ARM Flash Release/logging.o (__subsf3)
C:/Program Files/Rowley Associates Limited/CrossWorks for ARM 2.0/lib/libm_v4t_a_le.a(__float32_mul.o)
                              ARM Flash Release/dac.o (__mulsf3)
C:/Program Files/Rowley Associates Limited/CrossWorks for ARM 2.0/lib/libm_v4t_a_le.a(__float32_div.o)
                              ARM Flash Release/logging.o (__divsf3)
C:/Program Files/Rowley Associates Limited/CrossWorks for ARM 2.0/lib/libm_v4t_a_le.a(__float32_cmp.o)
                              ARM Flash Release/logging.o (__nesf2)
C:/Program Files/Rowley Associates Limited/CrossWorks for ARM 2.0/lib/libm_v4t_a_le.a(log.o)
                              ARM Flash Release/logging.o (log)
C:/Program Files/Rowley Associates Limited/CrossWorks for ARM 2.0/lib/libm_v4t_a_le.a(__float64_add.o)
                              C:/Program Files/Rowley Associates Limited/CrossWorks for ARM 2.0/lib/libm_v4t_a_le.a(log.o) (__subdf3)
C:/Program Files/Rowley Associates Limited/CrossWorks for ARM 2.0/lib/libm_v4t_a_le.a(__float64_mul.o)
                              C:/Program Files/Rowley Associates Limited/CrossWorks for ARM 2.0/lib/libm_v4t_a_le.a(log.o) (__muldf3)
C:/Program Files/Rowley Associates Limited/CrossWorks for ARM 2.0/lib/libm_v4t_a_le.a(__float64_div.o)
                              C:/Program Files/Rowley Associates Limited/CrossWorks for ARM 2.0/lib/libm_v4t_a_le.a(log.o) (__divdf3)
C:/Program Files/Rowley Associates Limited/CrossWorks for ARM 2.0/lib/libm_v4t_a_le.a(__float64_cmp.o)
                              C:/Program Files/Rowley Associates Limited/CrossWorks for ARM 2.0/lib/libm_v4t_a_le.a(log.o) (__eqdf2)
C:/Program Files/Rowley Associates Limited/CrossWorks for ARM 2.0/lib/libm_v4t_a_le.a(__float64_isnan.o)
                              C:/Program Files/Rowley Associates Limited/CrossWorks for ARM 2.0/lib/libm_v4t_a_le.a(log.o) (__float64_isnan)
C:/Program Files/Rowley Associates Limited/CrossWorks for ARM 2.0/lib/libm_v4t_a_le.a(__float64_infinity.o)
                              C:/Program Files/Rowley Associates Limited/CrossWorks for ARM 2.0/lib/libm_v4t_a_le.a(log.o) (__float64_infinity)
C:/Program Files/Rowley Associates Limited/CrossWorks for ARM 2.0/lib/libm_v4t_a_le.a(__float64_nan.o)
                              C:/Program Files/Rowley Associates Limited/CrossWorks for ARM 2.0/lib/libm_v4t_a_le.a(log.o) (__float64_nan)
C:/Program Files/Rowley Associates Limited/CrossWorks for ARM 2.0/lib/libm_v4t_a_le.a(__poly1_eval.o)
                              C:/Program Files/Rowley Associates Limited/CrossWorks for ARM 2.0/lib/libm_v4t_a_le.a(log.o) (__poly1_eval)
C:/Program Files/Rowley Associates Limited/CrossWorks for ARM 2.0/lib/libm_v4t_a_le.a(__poly_eval.o)
                              C:/Program Files/Rowley Associates Limited/CrossWorks for ARM 2.0/lib/libm_v4t_a_le.a(log.o) (__poly_eval)
C:/Program Files/Rowley Associates Limited/CrossWorks for ARM 2.0/lib/libm_v4t_a_le.a(frexp.o)
                              C:/Program Files/Rowley Associates Limited/CrossWorks for ARM 2.0/lib/libm_v4t_a_le.a(log.o) (frexp)
C:/Program Files/Rowley Associates Limited/CrossWorks for ARM 2.0/lib/libm_v4t_a_le.a(ldexp.o)
                              C:/Program Files/Rowley Associates Limited/CrossWorks for ARM 2.0/lib/libm_v4t_a_le.a(log.o) (ldexp)
C:/Program Files/Rowley Associates Limited/CrossWorks for ARM 2.0/lib/libc_v4t_a_le.a(__int32_umod.o)
                              ARM Flash Release/printf-stdarg.o (__umodsi3)
C:/Program Files/Rowley Associates Limited/CrossWorks for ARM 2.0/lib/libc_v4t_a_le.a(__int32_div.o)
                              ARM Flash Release/logging.o (__divsi3)
C:/Program Files/Rowley Associates Limited/CrossWorks for ARM 2.0/lib/libc_v4t_a_le.a(__int32_udivmod.o)
                              ARM Flash Release/pwm.o (__udivsi3)
C:/Program Files/Rowley Associates Limited/CrossWorks for ARM 2.0/lib/libc_v4t_a_le.a(strlen.o)
                              ARM Flash Release/args.o (strlen)
C:/Program Files/Rowley Associates Limited/CrossWorks for ARM 2.0/lib/libc_v4t_a_le.a(memcpy.o)
                              ARM Flash Release/usbser.o (memcpy)
C:/Program Files/Rowley Associates Limited/CrossWorks for ARM 2.0/lib/libc_v4t_a_le.a(memset.o)
                              ARM Flash Release/rtc.o (memset)
C:/Program Files/Rowley Associates Limited/CrossWorks for ARM 2.0/lib/libc_v4t_a_le.a(strcpy.o)
                              ARM Flash Release/monitor.o (strcpy)
C:/Program Files/Rowley Associates Limited/CrossWorks for ARM 2.0/lib/libc_v4t_a_le.a(strcmp.o)
                              ARM Flash Release/argsdispatch.o (strcmp)
C:/Program Files/Rowley Associates Limited/CrossWorks for ARM 2.0/lib/libc_v4t_a_le.a(memcmp.o)
                              ARM Flash Release/tasks.o (memcmp)
C:/Program Files/Rowley Associates Limited/CrossWorks for ARM 2.0/lib/libc_v4t_a_le.a(strcat.o)
                              ARM Flash Release/tasks.o (strcat)
C:/Program Files/Rowley Associates Limited/CrossWorks for ARM 2.0/lib/libc_v4t_a_le.a(strchr.o)
                              ARM Flash Release/httpd.o (strchr)
C:/Program Files/Rowley Associates Limited/CrossWorks for ARM 2.0/lib/libc_v4t_a_le.a(strncmp.o)
                              ARM Flash Release/monitor.o (strncmp)
C:/Program Files/Rowley Associates Limited/CrossWorks for ARM 2.0/lib/libc_v4t_a_le.a(strncpy.o)
                              ARM Flash Release/tasks.o (strncpy)
C:/Program Files/Rowley Associates Limited/CrossWorks for ARM 2.0/lib/libc_v4t_a_le.a(strrchr.o)
                              ARM Flash Release/httpd.o (strrchr)
C:/Program Files/Rowley Associates Limited/CrossWorks for ARM 2.0/lib/libc_v4t_a_le.a(strstr.o)
                              ARM Flash Release/httpd.o (strstr)
C:/Program Files/Rowley Associates Limited/CrossWorks for ARM 2.0/lib/libc_v4t_a_le.a(ctype.o)
                              ARM Flash Release/monitor.o (isdigit)
C:/Program Files/Rowley Associates Limited/CrossWorks for ARM 2.0/lib/libc_v4t_a_le.a(malloc.o)
                              ARM Flash Release/meas_sm.o (malloc)
C:/Program Files/Rowley Associates Limited/CrossWorks for ARM 2.0/lib/libc_v4t_a_le.a(atoi.o)
                              ARM Flash Release/monitor.o (atoi)
C:/Program Files/Rowley Associates Limited/CrossWorks for ARM 2.0/lib/libc_v4t_a_le.a(time.o)
                              ARM Flash Release/meas_sm.o (difftime)
C:/Program Files/Rowley Associates Limited/CrossWorks for ARM 2.0/lib/libc_v4t_a_le.a(asctime.o)
                              C:/Program Files/Rowley Associates Limited/CrossWorks for ARM 2.0/lib/libc_v4t_a_le.a(time.o) (asctime_r)
C:/Program Files/Rowley Associates Limited/CrossWorks for ARM 2.0/lib/libc_v4t_a_le.a(strftime.o)
                              ARM Flash Release/logging.o (strftime)
C:/Program Files/Rowley Associates Limited/CrossWorks for ARM 2.0/lib/libc_v4t_a_le.a(div.o)
                              C:/Program Files/Rowley Associates Limited/CrossWorks for ARM 2.0/lib/libc_v4t_a_le.a(time.o) (div)
C:/Program Files/Rowley Associates Limited/CrossWorks for ARM 2.0/lib/libc_v4t_a_le.a(strtol.o)
                              C:/Program Files/Rowley Associates Limited/CrossWorks for ARM 2.0/lib/libc_v4t_a_le.a(atoi.o) (strtol)
C:/Program Files/Rowley Associates Limited/CrossWorks for ARM 2.0/lib/libc_v4t_a_le.a(ldiv.o)
                              C:/Program Files/Rowley Associates Limited/CrossWorks for ARM 2.0/lib/libc_v4t_a_le.a(time.o) (ldiv)
C:/Program Files/Rowley Associates Limited/CrossWorks for ARM 2.0/lib/libc_v4t_a_le.a(__int32_mod.o)
                              C:/Program Files/Rowley Associates Limited/CrossWorks for ARM 2.0/lib/libc_v4t_a_le.a(div.o) (__modsi3)
C:/Program Files/Rowley Associates Limited/CrossWorks for ARM 2.0/lib/libc_v4t_a_le.a(__strtoul.o)
                              C:/Program Files/Rowley Associates Limited/CrossWorks for ARM 2.0/lib/libc_v4t_a_le.a(strtol.o) (__strtoul)
C:/Program Files/Rowley Associates Limited/CrossWorks for ARM 2.0/lib/libc_v4t_a_le.a(__digit.o)
                              C:/Program Files/Rowley Associates Limited/CrossWorks for ARM 2.0/lib/libc_v4t_a_le.a(__strtoul.o) (__digit)
C:/Program Files/Rowley Associates Limited/CrossWorks for ARM 2.0/lib/libdebugio_v4t_a_le.a(debug_printf.o)
                              ARM Flash Release/eint3ISR.o (debug_printf)
C:/Program Files/Rowley Associates Limited/CrossWorks for ARM 2.0/lib/libc_targetio_impl_v4t_a_le.a(putchar.o)
                              ARM Flash Release/printf-stdarg.o (putchar)
C:/Program Files/Rowley Associates Limited/CrossWorks for ARM 2.0/lib/libc_user_libc_v4t_a_le.a(user_libc.o)
                              C:/Program Files/Rowley Associates Limited/CrossWorks for ARM 2.0/lib/libm_v4t_a_le.a(ldexp.o) (__errno)
C:/Program Files/Rowley Associates Limited/CrossWorks for ARM 2.0/lib/libdebugio_dcc_v4t_a_le.a(dcc_debug_operations.o)
                              C:/Program Files/Rowley Associates Limited/CrossWorks for ARM 2.0/lib/libdebugio_v4t_a_le.a(debug_printf.o) (__do_debug_operation)
C:/Program Files/Rowley Associates Limited/CrossWorks for ARM 2.0/lib/libdebugio_dcc_v4t_a_le.a(libarmdi_dcc_write.o)
                              C:/Program Files/Rowley Associates Limited/CrossWorks for ARM 2.0/lib/libdebugio_dcc_v4t_a_le.a(dcc_debug_operations.o) (libarm_dcc_write)
C:/Program Files/Rowley Associates Limited/CrossWorks for ARM 2.0/lib/libdebugio_dcc_v4t_a_le.a(libarm_run_dcc_port_server.o)
                              C:/Program Files/Rowley Associates Limited/CrossWorks for ARM 2.0/lib/libdebugio_dcc_v4t_a_le.a(dcc_debug_operations.o) (libarm_run_dcc_port_server)
C:/Program Files/Rowley Associates Limited/CrossWorks for ARM 2.0/lib/libdebugio_dcc_v4t_a_le.a(libarmdi_dcc_read.o)
                              C:/Program Files/Rowley Associates Limited/CrossWorks for ARM 2.0/lib/libdebugio_dcc_v4t_a_le.a(libarm_run_dcc_port_server.o) (libarm_dcc_read)

Allocating common symbols
Common symbol       size              file

Fatfs               0x230             ARM Flash Release/main.o
pxReadyTasksLists   0x64              ARM Flash Release/tasks.o
uip_len             0x2               ARM Flash Release/uip.o
xPendingReadyList   0x14              ARM Flash Release/tasks.o
pcTraceBuffer       0x4               ARM Flash Release/tasks.o
xSuspendedTaskList  0x14              ARM Flash Release/tasks.o
uip_sappdata        0x4               ARM Flash Release/uip.o
ts                  0x4               ARM Flash Release/main.o
uip_acc32           0x4               ARM Flash Release/uip.o
LOG_ITEM_STATE      0x4               ARM Flash Release/main.o
tencounter          0x2               ARM Flash Release/main.o
pxDelayedTaskList   0x4               ARM Flash Release/tasks.o
xQueueRegistry      0x50              ARM Flash Release/queue.o
FileAllTimeLog      0x224             ARM Flash Release/main.o
FileContLog         0x224             ARM Flash Release/main.o
uip_flags           0x1               ARM Flash Release/uip.o
FileDayLog          0x224             ARM Flash Release/main.o
uip_udp_conn        0x4               ARM Flash Release/uip.o
pxOverflowDelayedTaskList
                    0x4               ARM Flash Release/tasks.o
uip_appdata         0x4               ARM Flash Release/uip.o
uip_conn            0x4               ARM Flash Release/uip.o
cdaylog_entry_item  0x10              ARM Flash Release/main.o
uip_conns           0x438             ARM Flash Release/uip.o
uip_sntpaddr        0x4               ARM Flash Release/uip.o
time_buf            0x1e              ARM Flash Release/logging.o
pcTraceBufferEnd    0x4               ARM Flash Release/tasks.o
slog_entry_item     0x14              ARM Flash Release/main.o
tencounts           0x28              ARM Flash Release/main.o
pcTraceBufferStart  0x4               ARM Flash Release/tasks.o
uip_listenports     0x8               ARM Flash Release/uip.o
buf                 0x15              ARM Flash Release/main.o
uip_draddr          0x4               ARM Flash Release/uip.o
measure_timestamp   0xc               ARM Flash Release/main.o
uip_stat            0x34              ARM Flash Release/uip.o
xDelayedTaskList1   0x14              ARM Flash Release/tasks.o
xTasksWaitingTermination
                    0x14              ARM Flash Release/tasks.o
meas_op_item        0x64              ARM Flash Release/main.o
taskHandles         0x1c              ARM Flash Release/main.o
pcStatusString      0x32              ARM Flash Release/tasks.o
xDelayedTaskList2   0x14              ARM Flash Release/tasks.o
uip_netmask         0x4               ARM Flash Release/uip.o
uip_hostaddr        0x4               ARM Flash Release/uip.o
log_file            0x4               ARM Flash Release/main.o
uip_buf             0x5e4             ARM Flash Release/uip.o
uip_slen            0x2               ARM Flash Release/uip.o
uip_udp_conns       0x130             ARM Flash Release/uip.o

Memory Configuration

Name             Origin             Length             Attributes
UNPLACED_SECTIONS 0xffffffff         0x00000000         xw
AHB_Peripherals  0xffe00000         0x00200000         xw
APB_Peripherals  0xe0000000         0x00200000         xw
USB_DMA_RAM      0x7fd00000         0x00002000         xw
SRAM             0x40000000         0x00008000         xw
FLASH            0x00000000         0x00080000         xr
*default*        0x00000000         0xffffffff

Linker script and memory map

                0xffe00000                __AHB_Peripherals_segment_start__ = 0xffe00000
                0x00000000                __AHB_Peripherals_segment_end__ = 0x0
                0xe0000000                __APB_Peripherals_segment_start__ = 0xe0000000
                0xe0200000                __APB_Peripherals_segment_end__ = 0xe0200000
                0x7fd00000                __USB_DMA_RAM_segment_start__ = 0x7fd00000
                0x7fd02000                __USB_DMA_RAM_segment_end__ = 0x7fd02000
                0x40000000                __SRAM_segment_start__ = 0x40000000
                0x40008000                __SRAM_segment_end__ = 0x40008000
                0x00000000                __FLASH_segment_start__ = 0x0
                0x00080000                __FLASH_segment_end__ = 0x80000
                0x00000400                __STACKSIZE__ = 0x400
                0x00000400                __STACKSIZE_IRQ__ = 0x400
                0x00000020                __STACKSIZE_FIQ__ = 0x20
                0x00000100                __STACKSIZE_SVC__ = 0x100
                0x00000008                __STACKSIZE_ABT__ = 0x8
                0x00000008                __STACKSIZE_UND__ = 0x8
                0x00000400                __HEAPSIZE__ = 0x400
                0x40000000                __vectors_ram_load_start__ = __SRAM_segment_start__

.vectors_ram    0x40000000       0x3c
                0x40000000                __vectors_ram_start__ = .
 *(.vectors_ram .vectors_ram.*)
                0x4000003c                . = MAX ((__vectors_ram_start__ + 0x3c), .)
 *fill*         0x40000000       0x3c 00
                0x4000003c                __vectors_ram_end__ = (__vectors_ram_start__ + SIZEOF (.vectors_ram))
                0x4000003c                __vectors_ram_load_end__ = __vectors_ram_end__
                0x00000001                . = ASSERT (((__vectors_ram_end__ >= __SRAM_segment_start__) && (__vectors_ram_end__ <= (__SRAM_segment_start__ + 0x8000))), error: .vectors_ram is too large to fit in SRAM memory segment)
                0x00000000                __vectors_load_start__ = __FLASH_segment_start__

.vectors        0x00000000       0x38
                0x00000000                __vectors_start__ = .
 *(.vectors .vectors.*)
 .vectors       0x00000000       0x38 ARM Flash Release/Philips_LPC210X_Startup.o
                0x00000000                _vectors
                0x00000038                __vectors_end__ = (__vectors_start__ + SIZEOF (.vectors))
                0x00000038                __vectors_load_end__ = __vectors_end__
                0x00000001                . = ASSERT (((__vectors_end__ >= __FLASH_segment_start__) && (__vectors_end__ <= (__FLASH_segment_start__ + 0x80000))), error: .vectors is too large to fit in FLASH memory segment)
                0x00000038                __init_load_start__ = ALIGN (__vectors_end__, 0x4)

.init           0x00000038      0x260
                0x00000038                __init_start__ = .
 *(.init .init.*)
 *fill*         0x00000038        0x8 00
 .init          0x00000040      0x1d0 ARM Flash Release/crt0.o
                0x00000040                _start
                0x00000040                __start
 .init          0x00000210       0x88 ARM Flash Release/Philips_LPC210X_Startup.o
                0x00000210                reset_handler
                0x0000027c                undef_handler
                0x00000284                pabort_handler
                0x00000288                dabort_handler
                0x0000028c                fiq_handler
                0x00000298                __init_end__ = (__init_start__ + SIZEOF (.init))
                0x00000298                __init_load_end__ = __init_end__
                0x00000001                . = ASSERT (((__init_end__ >= __FLASH_segment_start__) && (__init_end__ <= (__FLASH_segment_start__ + 0x80000))), error: .init is too large to fit in FLASH memory segment)
                0x00000298                __text_load_start__ = ALIGN (__init_end__, 0x4)

.text           0x00000298    0x184a8
                0x00000298                __text_start__ = .
 *(.text .text.* .glue_7t .glue_7 .gnu.linkonce.t.* .gcc_except_table)
 .glue_7        0x00000000        0x0 linker stubs
 .glue_7t       0x00000000        0x0 linker stubs
 .text          0x00000298       0xcc ARM Flash Release/main.o
                0x00000298                vApplicationStackOverflowHook
                0x0000029c                __putchar
                0x000002b8                main
 .text          0x00000364      0x3cc ARM Flash Release/adc.o
                0x00000364                adcRead0_1
                0x000003c4                adcRead0_2
                0x00000424                adcRead0_3
                0x00000484                adcRead1_1
                0x000004e4                adcRead1_6
                0x00000544                adcRead1_7
                0x000005a4                adcInit0_1
                0x000005e8                adcInit0_2
                0x0000062c                adcInit0_3
                0x00000670                adcInit1_1
                0x000006b0                adcInit1_6
                0x000006f0                adcInit1_7
 .text          0x00000730       0xd8 ARM Flash Release/cpu.o
                0x00000730                cpuSetupHardware
                0x000007e0                cpuPLLDisable
 .text          0x00000808       0x60 ARM Flash Release/i2c.o
                0x00000808                i2cGetErrno
                0x00000818                i2cStrerror
 .text          0x00000868      0x9b0 ARM Flash Release/i2cInt.o
                0x00000ca8                i2cInit
                0x00000dd4                i2cSetTimeout
                0x00000f48                i2cWriteReadBuffer
                0x00000f90                i2cReadBuffer
                0x00000fdc                i2cWriteBuffer
                0x0000111c                i2cWriteReadBufferPoll
                0x00001168                i2cWriteBufferPoll
                0x000011b4                i2cDump
 .text          0x00001218      0x1a4 ARM Flash Release/pwm.o
                0x00001218                pwmDutyCycle
                0x00001280                pwmPulseWidthInMicroseconds
                0x000012b8                pwmFrequency
                0x00001330                pwmInit
 .text          0x000013bc       0x9c ARM Flash Release/spi.o
                0x000013bc                spiInit
                0x00001424                spiPut
 .text          0x00001458      0x2ac ARM Flash Release/uart0.o
                0x00001458                uart0Deinit
                0x0000148c                uart0GetRxQueue
                0x000014a0                uart0GetChar
                0x000014d4                uart0PutChar
                0x00001598                uart0PutString
                0x000015e0                uart0Init
 .text          0x00001704      0x290 ARM Flash Release/uart0ISR.o
                0x00001704                uart0ISRCreateQueues
                0x000018e4                uart0ISR
 .text          0x00001994      0x2ac ARM Flash Release/uart1.o
                0x00001994                uart1Deinit
                0x000019c8                uart1GetRxQueue
                0x000019dc                uart1GetChar
                0x00001a10                uart1PutChar
                0x00001ad4                uart1PutString
                0x00001b1c                uart1Init
 .text          0x00001c40      0x290 ARM Flash Release/uart1ISR.o
                0x00001c40                uart1ISRCreateQueues
                0x00001e20                uart1ISR
 .text          0x00001ed0      0x21c ARM Flash Release/usbcontrol.o
                0x00001f04                usbRegisterRequestHandler
                0x00001f7c                usbHandleControlTransfer
 .text          0x000020ec       0x74 ARM Flash Release/usbinit.o
                0x000020f0                usbRegisterHandlers
 .text          0x00002160      0x6c0 ARM Flash Release/usbISR.o
                0x00002230                usbHardwareEndpointConfig
                0x00002288                usbHardwareRegisterEPIntHandler
                0x000022cc                usbHardwareRegisterDevIntHandler
                0x000022f0                usbHardwareRegisterFrameHandler
                0x00002314                usbHardwareSetAddress
                0x00002334                usbHardwareConnect
                0x00002350                usbHardwareNakIntEnable
                0x00002368                usbHardwareEndpointIsStalled
                0x0000238c                usbHardwareEndpointStall
                0x000023b8                usbHardwareEndpointWrite
                0x00002458                usbHardwareEndpointRead
                0x0000250c                usbHardwareConfigDevice
                0x00002528                usbSetupInterruptHandler
                0x00002558                usbHardwareInit
                0x0000262c                usbISR
 .text          0x00002820      0x354 ARM Flash Release/usbstdreq.o
                0x00002820                usbRegisterDescriptors
                0x00002830                usbGetDescriptor
                0x000028bc                usbRegisterCustomReqHandler
                0x000028cc                usbHandleStandardRequest
 .text          0x00002b74      0x388 ARM Flash Release/usbser.o
                0x00002b74                usbserGetRxQueue
                0x00002bb0                usbserInit
                0x00002de8                usbserGetChar
                0x00002e30                usbserPutChar
                0x00002e8c                usbserPutString
 .text          0x00002efc      0x8e0 ARM Flash Release/rtc.o
                0x00002efc                rtcSetAlarm
                0x00002fa0                rtcSetAlarmCIIR
                0x00002ff4                rtcPeriodicAlarm
                0x0000307c                rtcIs5minInt
                0x00003090                getMonthLength
                0x00003288                getRtcRead
                0x0000329c                rtcGetEpochSecondsLuk
                0x000032c8                rtcGetEpochSeconds
                0x00003424                time
                0x00003438                rtcGetAlarmTm
                0x00003520                rtcGetAlarmEpochSeconds
                0x00003540                rtcSetEpochSeconds
                0x00003620                rtcInit
 .text          0x000037dc      0x39c ARM Flash Release/rtcISR.o
                0x000037dc                rtcISRInit
                0x00003ac8                rtcISR
 .text          0x00003b78       0x28 ARM Flash Release/reset.o
                0x00003b78                reset
 .text          0x00003ba0       0xa4 ARM Flash Release/eint0.o
                0x00003ba0                eint0Deinit
                0x00003bc4                eint0Init
 .text          0x00003c44       0xc4 ARM Flash Release/eint0ISR.o
                0x00003c44                eint0ISR
 .text          0x00003d08       0xa4 ARM Flash Release/eint2.o
                0x00003d08                eint2Deinit
                0x00003d2c                eint2Init
 .text          0x00003dac       0xd8 ARM Flash Release/eint2ISR.o
                0x00003dd4                eint2ISR
 .text          0x00003e84       0xa8 ARM Flash Release/eint3.o
                0x00003e84                eint3Deinit
                0x00003eac                eint3Init
 .text          0x00003f2c      0x168 ARM Flash Release/eint3ISR.o
                0x00003f2c                eint3ISR
 .text          0x00004094       0xa0 ARM Flash Release/eint1.o
                0x00004094                eint1Deinit
                0x000040b8                eint1Init
 .text          0x00004134      0x108 ARM Flash Release/eint1ISR.o
                0x00004134                eint1ISR
 .text          0x0000423c      0x174 ARM Flash Release/beep.o
                0x0000423c                beepOn
                0x000042c4                beepOff
                0x0000435c                beepA_TEAM_THEME
                0x00004378                beepSMOTW
                0x00004394                beepMHALL
 .text          0x000043b0      0x29c ARM Flash Release/timer.o
                0x000043b0                timer1Init
                0x000043c8                timer1FlowRateStart
                0x000043e4                timer1FlowRateContinue
                0x000043f8                timer1FlowRateStop
                0x00004428                timer1ISR
                0x00004550                clrT1capIntCount
                0x00004570                getT1capIntCount
                0x00004588                getT1capTime
                0x00004598                capture13Init
 .text          0x0000464c        0x0 ARM Flash Release/freqCounter.o
 .text          0x0000464c       0xb8 ARM Flash Release/dac.o
                0x0000464c                dacInit
                0x00004674                dacSet
                0x000046b0                dacSetMV
 .text          0x00004704      0x2d4 ARM Flash Release/args.o
                0x00004704                argsParse
                0x00004870                argsGetLine
 .text          0x000049d8      0x11c ARM Flash Release/argsdispatch.o
                0x000049d8                argsDispatch
 .text          0x00004af4     0x16c4 ARM Flash Release/monitor.o
                0x00004b0c                monitorTaskStart
                0x00006150                get_fattime
 .text          0x000061b8      0x524 ARM Flash Release/printf-stdarg.o
                0x000061b8                write
                0x00006644                snprintf
                0x00006678                sprintf
                0x000066ac                printf
 .text          0x000066dc      0x124 ARM Flash Release/leds.o
                0x000066dc                ledsSetDelay
                0x000066f4                ledsGetDelay
                0x00006704                ledsTaskStop
                0x00006758                ledsTaskStart
 .text          0x00006800      0x22c ARM Flash Release/tcs3414.o
                0x00006804                tcs3414TaskStart
                0x000068a8                tcs3414GetICRevision
                0x000068cc                tcs3414GetColour
                0x000069e0                tcs3414Init
 .text          0x00006a2c      0x984 ARM Flash Release/mmc.o
                0x00006a2c                mmcWriteProtect
                0x00006a3c                mmcDecodeCSD
                0x00006a54                mmcDumpCSD
                0x00006a6c                mmcCardPresent
                0x00006c48                mmcVerify
                0x00006d88                mmcReadCardInfo
                0x00006e64                mmcInitMedia
                0x000071b0                mmcWrite
                0x000072b8                mmcRead
                0x00007394                mmcWaitReady
 .text          0x000073b0      0x3b0 ARM Flash Release/ssp.o
                0x000073b0                sspHardwareCardPresent
                0x000073cc                sspHardwareWriteProtected
                0x000073f8                sspChipSelect
                0x00007488                sspSetClockFreq
                0x000074dc                sspInit
                0x00007594                sspTransferByte
                0x000075dc                sspWaitReady
                0x00007610                sspSendBlock
                0x00007664                sspReceiveBlock
                0x00007718                sspDelay1ms
 .text          0x00007760      0x790 ARM Flash Release/Lcd204_4.o
                0x00007760                delay_us
                0x0000777c                delay
                0x000077c8                write_lcd
                0x00007ac8                write_byte_lcd
                0x00007b18                blink_lcd
                0x00007b90                init_screenpool
                0x00007b94                lcdTaskStop
                0x00007bc8                lcdTaskStart
                0x00007c14                init_system
                0x00007cc4                clear_lcd
                0x00007ce4                init_lcd
                0x00007e2c                printf_lcd
 .text          0x00007ef0      0xc3c ARM Flash Release/logging.o
                0x00007ef0                setWsPrice
                0x00007f00                incr_SumFlowvolume
                0x00007f44                init_daysLogging
                0x00007f58                incr_daysLogging
                0x00007f7c                b_itoab
                0x0000804c                luk_strcpy
                0x0000806c                nrOfDigits
                0x000080a0                updateCDayLogEntryItem
                0x0000814c                fillSlogEntryItem
                0x000081a4                feedLCD
                0x000086c0                getDateTime
                0x00008714                fs_init
                0x00008764                appendToLog
                0x00008844                initLog
                0x000088c0                trackLogTaskStop
                0x000088f4                trackLogTaskStart
                0x00008940                getLogFilename
                0x000089e0                trackLog
 .text          0x00008b2c      0x5cc ARM Flash Release/meas_sm.o
                0x00008b2c                set_measure
                0x00008b40                clr_measure
                0x00008b54                get_measure
                0x00008b64                set_trackLog
                0x00008b78                clr_trackLog
                0x00008b8c                get_trackLog
                0x00008b9c                get_pumpLastControlSignalOn
                0x00008bb8                clr_pumpLastControlSignalOn
                0x00008bcc                getMeasure_timestamp_diff
                0x00008be8                clr_valuesReceived
                0x00008bfc                set_valuesReceived
                0x00008c10                valuesReceived
                0x00008c20                stopMeasure
                0x00008c34                startMeasure
                0x00008c48                get_FlowCount
                0x00008c6c                incr_FlowCount
                0x00008cbc                clr_FlowCount
                0x00008ce8                initFlowrateSensor
                0x00008d20                updateMeasure_timestamp
                0x00008d5c                set_pumpLastControlSignalOn
                0x00008d84                MeasSMTaskStop
                0x00008db8                measSMTaskStart
                0x00008e04                meas_sm
 .text          0x000090f8      0x22c ARM Flash Release/meas_task.o
                0x000090f8                meas_task_init
                0x00009138                measTaskStop
                0x0000916c                measTaskStart
                0x000091b8                doMeasure
                0x00009264                meas_winddirection
 .text          0x00009324        0x0 ARM Flash Release/crt0.o
 .text          0x00009324        0x0 ARM Flash Release/Philips_LPC210X_Startup.o
 .text          0x00009324       0xc8 ARM Flash Release/LPC210x.o
                0x00009354                ctl_get_ticks_per_second
                0x0000935c                ctl_start_timer
 .text          0x000093ec      0x1b0 ARM Flash Release/VIC.o
                0x000093ec                ctl_set_isr
                0x0000956c                ctl_unmask_isr
                0x00009584                ctl_mask_isr
 .text          0x0000959c       0x44 ARM Flash Release/VIC_irq_handler.o
                0x0000959c                irq_handler
 .text          0x000095e0      0x22c ARM Flash Release/portISR.o
                0x000095e0                vPortISRStartFirstTask
                0x0000962c                vTickISR
                0x000096ec                vPortEnterCritical
                0x00009718                vPortExitCritical
                0x00009760                swi_handler
 .text          0x0000980c      0x18c ARM Flash Release/port.o
                0x0000980c                pxPortInitialiseStack
                0x00009918                vPortEndScheduler
                0x0000991c                xPortStartScheduler
 .text          0x00009998      0x1b4 ARM Flash Release/heap_2.o
                0x00009998                xPortGetFreeHeapSize
                0x000099a8                vPortInitialiseBlocks
                0x000099ac                vPortFree
                0x00009a10                pvPortMalloc
 .text          0x00009b4c     0x1410 ARM Flash Release/tasks.o
                0x00009b4c                xTaskIsTaskSuspended
                0x00009b88                vTaskSuspendAll
                0x00009ba0                uxTaskGetNumberOfTasks
                0x00009bb0                vTaskSetTimeOutState
                0x00009bcc                vTaskMissedYield
                0x00009be0                usTaskCheckFreeStackSpace
                0x00009c14                uxTaskGetStackHighWaterMark
                0x00009c38                xTaskGetCurrentTaskHandle
                0x00009c48                vTaskPriorityDisinherit
                0x00009cbc                vTaskPriorityInherit
                0x00009d70                xTaskRemoveFromEventList
                0x00009e20                vTaskIncrementTick
                0x00009f2c                xTaskResumeFromISR
                0x00009fd4                prvDeleteTCB
                0x00009ff4                prvListTaskWithinSingleList
                0x0000a0b0                prvAllocateTCBAndStack
                0x0000a10c                xTaskCheckForTimeOut
                0x0000a1a8                ulTaskEndTrace
                0x0000a1e8                vTaskStartTrace
                0x0000a240                xTaskGetTickCount
                0x0000a264                xTaskResumeAll
                0x0000a3a8                vTaskList
                0x0000a4bc                prvCheckTasksWaitingTermination
                0x0000a548                prvIdleTask
                0x0000a558                vTaskResume
                0x0000a5f4                vTaskSuspend
                0x0000a670                vTaskPrioritySet
                0x0000a760                uxTaskPriorityGet
                0x0000a790                vTaskDelete
                0x0000a834                prvInitialiseTaskLists
                0x0000a8bc                prvInitialiseTCBVariables
                0x0000a914                vTaskPlaceOnEventList
                0x0000a9c0                vTaskDelay
                0x0000aa50                vTaskDelayUntil
                0x0000ab40                vTaskSwitchContext
                0x0000ad2c                vTaskEndScheduler
                0x0000ad60                xTaskGenericCreate
                0x0000aee4                vTaskStartScheduler
 .text          0x0000af5c      0xb54 ARM Flash Release/queue.o
                0x0000af5c                uxQueueMessagesWaitingFromISR
                0x0000af64                xQueueIsQueueEmptyFromISR
                0x0000af74                xQueueIsQueueFullFromISR
                0x0000af8c                vQueueAddToRegistry
                0x0000afd8                vQueueDelete
                0x0000b044                uxQueueMessagesWaiting
                0x0000b104                xQueueReceiveFromISR
                0x0000b17c                xQueueAltGenericReceive
                0x0000b3bc                xQueueGenericReceive
                0x0000b574                xQueueTakeMutexRecursive
                0x0000b684                xQueueGenericSendFromISR
                0x0000b6f8                xQueueAltGenericSend
                0x0000b800                xQueueGenericSend
                0x0000b94c                xQueueGiveMutexRecursive
                0x0000b9a0                xQueueCreateMutex
                0x0000ba14                xQueueCreate
 .text          0x0000bab0      0x108 ARM Flash Release/list.o
                0x0000bab0                vListInitialise
                0x0000bad4                vListInitialiseItem
                0x0000bae0                vListInsertEnd
                0x0000bb18                vListInsert
                0x0000bb78                vListRemove
 .text          0x0000bbb8      0x71c ARM Flash Release/dhcpc.o
                0x0000bbdc                dhcpc_request
                0x0000befc                dhcpc_appcall
                0x0000c25c                dhcpc_init
 .text          0x0000c2d4      0x2b4 ARM Flash Release/sntp.o
                0x0000c2d4                sntp_appcall
                0x0000c518                sntpSync
 .text          0x0000c588      0x604 ARM Flash Release/telnetd.o
                0x0000c5a4                telnetdDisconnect
                0x0000c760                telnetd_appcall
                0x0000ca8c                telnetd_init
                0x0000caf0                telnetdPutChar
 .text          0x0000cb8c      0x9c4 ARM Flash Release/httpd.o
                0x0000cb8c                httpd_init
                0x0000d434                httpd_appcall
 .text          0x0000d550      0x448 ARM Flash Release/httpd-cgi.o
                0x0000d560                httpd_cgi
 .text          0x0000d998      0x174 ARM Flash Release/httpd-fs.o
                0x0000da0c                httpd_fs_open
                0x0000da8c                httpd_fs_init
                0x0000dab0                httpd_fs_count
 .text          0x0000db0c        0x0 ARM Flash Release/http-strings.o
 .text          0x0000db0c      0x88c ARM Flash Release/enc28j60.o
                0x0000dbb0                enc28j60WaitForData
                0x0000dd34                enc28j60Send
                0x0000deb0                enc28j60Deinit
                0x0000ded0                enc28j60Init
                0x0000e230                enc28j60Receive
 .text          0x0000e398      0x124 ARM Flash Release/memb.o
                0x0000e398                memb_alloc
                0x0000e408                memb_free
                0x0000e484                memb_init
 .text          0x0000e4bc      0x608 ARM Flash Release/psock.o
                0x0000e554                psock_datalen
                0x0000e56c                psock_newdata
                0x0000e5a8                psock_readto
                0x0000e714                psock_init
                0x0000e750                psock_readbuf
                0x0000e95c                psock_generator_send
                0x0000ea2c                psock_send
 .text          0x0000eac4     0x1e30 ARM Flash Release/uip.o
                0x0000eac4                uip_setipid
                0x0000ead4                uip_init
                0x0000eb40                uip_unlisten
                0x0000ebec                uip_listen
                0x0000ec94                htons
                0x0000ecac                uip_connect
                0x0000ee74                htonl
                0x0000ee9c                uip_iszeroaddr
                0x0000eebc                uip_send
                0x0000ef60                uip_process
                0x000105b4                uip_udp_new
                0x00010720                uip_printstats
 .text          0x000108f4      0x444 ARM Flash Release/uip_arch.o
                0x000108f4                uip_add32
                0x00010a60                uip_udpchksum
                0x00010abc                uip_chksum
                0x00010ba8                uip_ipchksum
                0x00010bc4                uip_tcpchksum
 .text          0x00010d38      0x768 ARM Flash Release/uip_arp.o
                0x00010ed4                uip_arp_ipin
                0x00010f6c                uip_arp_arpin
                0x0001112c                uip_arp_out
                0x000113a8                uip_arp_timer
                0x00011444                uip_arp_init
 .text          0x000114a0       0x70 ARM Flash Release/uip_timer.o
                0x000114a0                timer_reset
                0x000114b0                timer_expired
                0x000114dc                timer_restart
                0x000114f4                timer_set
 .text          0x00011510      0x41c ARM Flash Release/uip-fw.o
                0x00011510                uip_fw_init
                0x0001154c                uip_fw_output
                0x0001168c                uip_fw_register
                0x000116a4                uip_fw_default
                0x000116b4                uip_fw_periodic
                0x000116fc                uip_fw_forward
 .text          0x0001192c       0x98 ARM Flash Release/uiplib.o
                0x0001192c                uiplib_ipaddrconv
 .text          0x000119c4      0x1e4 ARM Flash Release/uip-neighbor.o
                0x000119c4                uip_neighbor_init
                0x000119e8                uip_neighbor_periodic
                0x00011a68                uip_neighbor_update
                0x00011a84                uip_neighbor_lookup
                0x00011aa0                uip_neighbor_add
 .text          0x00011ba8       0x10 ARM Flash Release/clock.o
                0x00011ba8                clock_time
 .text          0x00011bb8      0x3d0 ARM Flash Release/uiptask.o
                0x00011bb8                uipIsRunning
                0x00011bd0                dispatch_tcp_appcall
                0x00011bd4                dispatch_udp_appcall
                0x00011bd8                dhcpc_configured
                0x00011bdc                uipStop
                0x00011c18                uipStart
                0x00011f50                uipFastPoll
 .text          0x00011f88      0x3ac ARM Flash Release/disk.o
                0x00011f88                diskShutdown
                0x00011fa4                diskStatus
                0x00011fb4                diskErrorText
                0x00012004                diskErrorTextPrint
                0x0001202c                diskPresent
                0x0001203c                diskIoctl
                0x000121b4                diskWrite
                0x00012214                diskRead
                0x00012260                diskInitialize
 .text          0x00012334     0x2dc8 ARM Flash Release/ff.o
                0x000124a8                f_ferrorlookup
                0x000124f8                f_mount
                0x00012554                f_mkfs
                0x00013554                f_readdir
                0x00013610                f_lseek
                0x00013808                f_write
                0x00013ab8                f_read
                0x00014194                f_getfree
                0x000145fc                f_rename
                0x00014724                f_chmod
                0x000147b4                f_unlink
                0x00014930                f_stat
                0x000149a4                f_opendir
                0x00014a60                f_mkdir
                0x00014cc8                f_sync
                0x00014dd4                f_close
                0x00014df4                f_open
                0x000150d4                f_printerror
 .text          0x000150fc        0x0 C:/Users/lukas/AppData/Local/Rowley Associates Limited/CrossWorks for ARM/packages/lib/liblpc2000_v4t_a_le.a(liblpc2000_lpc21xx_get_cclk.o)
 .text.liblpc2000
                0x000150fc       0x30 C:/Users/lukas/AppData/Local/Rowley Associates Limited/CrossWorks for ARM/packages/lib/liblpc2000_v4t_a_le.a(liblpc2000_lpc21xx_get_cclk.o)
                0x000150fc                liblpc2000_lpc21xx_get_cclk
                0x000150fc                liblpc2000_get_cclk
 .text          0x0001512c        0x0 C:/Users/lukas/AppData/Local/Rowley Associates Limited/CrossWorks for ARM/packages/lib/liblpc2000_v4t_a_le.a(liblpc2000_lpc21xx_get_pclk.o)
 .text.liblpc2000
                0x0001512c       0x2c C:/Users/lukas/AppData/Local/Rowley Associates Limited/CrossWorks for ARM/packages/lib/liblpc2000_v4t_a_le.a(liblpc2000_lpc21xx_get_pclk.o)
                0x0001512c                liblpc2000_lpc21xx_get_pclk
                0x0001512c                liblpc2000_get_pclk
 .text          0x00015158        0x0 C:/Program Files/Rowley Associates Limited/CrossWorks for ARM 2.0/lib/libm_v4t_a_le.a(__int32_to_float32.o)
 *fill*         0x00015158        0x8 00
 .text.libc     0x00015160       0x70 C:/Program Files/Rowley Associates Limited/CrossWorks for ARM 2.0/lib/libm_v4t_a_le.a(__int32_to_float32.o)
                0x00015160                __int32_to_float32
                0x00015160                __floatsisf
                0x00015160                __aeabi_i2f
                0x00015174                __int32_to_float32_common
 .text          0x000151d0        0x0 C:/Program Files/Rowley Associates Limited/CrossWorks for ARM 2.0/lib/libm_v4t_a_le.a(__int32_to_float64.o)
 .text.libc     0x000151d0       0x70 C:/Program Files/Rowley Associates Limited/CrossWorks for ARM 2.0/lib/libm_v4t_a_le.a(__int32_to_float64.o)
                0x000151d0                __aeabi_i2d
                0x000151d0                __int32_to_float64
                0x000151d0                __floatsidf
 .text          0x00015240        0x0 C:/Program Files/Rowley Associates Limited/CrossWorks for ARM 2.0/lib/libm_v4t_a_le.a(__uint32_to_float32.o)
 .text.libc     0x00015240       0x10 C:/Program Files/Rowley Associates Limited/CrossWorks for ARM 2.0/lib/libm_v4t_a_le.a(__uint32_to_float32.o)
                0x00015240                __aeabi_ui2f
                0x00015240                __floatunsisf
                0x00015240                __uint32_to_float32
 .text          0x00015250        0x0 C:/Program Files/Rowley Associates Limited/CrossWorks for ARM 2.0/lib/libm_v4t_a_le.a(__uint32_to_float64.o)
 .text.libc     0x00015250       0x60 C:/Program Files/Rowley Associates Limited/CrossWorks for ARM 2.0/lib/libm_v4t_a_le.a(__uint32_to_float64.o)
                0x00015250                __aeabi_ui2d
                0x00015250                __floatunsidf
                0x00015250                __uint32_to_float64
 .text          0x000152b0        0x0 C:/Program Files/Rowley Associates Limited/CrossWorks for ARM 2.0/lib/libm_v4t_a_le.a(__float32_to_int32.o)
 .text.libc     0x000152b0       0x50 C:/Program Files/Rowley Associates Limited/CrossWorks for ARM 2.0/lib/libm_v4t_a_le.a(__float32_to_int32.o)
                0x000152b0                __float32_to_int32
                0x000152b0                __aeabi_f2iz
                0x000152b0                __fixsfsi
 .text          0x00015300        0x0 C:/Program Files/Rowley Associates Limited/CrossWorks for ARM 2.0/lib/libm_v4t_a_le.a(__float32_to_uint32.o)
 .text.libc     0x00015300       0x40 C:/Program Files/Rowley Associates Limited/CrossWorks for ARM 2.0/lib/libm_v4t_a_le.a(__float32_to_uint32.o)
                0x00015300                __aeabi_f2uiz
                0x00015300                __fixunssfsi
                0x00015300                __float32_to_uint32
 .text          0x00015340        0x0 C:/Program Files/Rowley Associates Limited/CrossWorks for ARM 2.0/lib/libm_v4t_a_le.a(__float64_to_int32.o)
 .text.libc     0x00015340       0x60 C:/Program Files/Rowley Associates Limited/CrossWorks for ARM 2.0/lib/libm_v4t_a_le.a(__float64_to_int32.o)
                0x00015340                __aeabi_d2iz
                0x00015340                __float64_to_int32
                0x00015340                __fixdfsi
 .text          0x000153a0        0x0 C:/Program Files/Rowley Associates Limited/CrossWorks for ARM 2.0/lib/libm_v4t_a_le.a(__float32_to_float64.o)
 .text.libc     0x000153a0       0x40 C:/Program Files/Rowley Associates Limited/CrossWorks for ARM 2.0/lib/libm_v4t_a_le.a(__float32_to_float64.o)
                0x000153a0                __float32_to_float64
                0x000153a0                __aeabi_f2d
                0x000153a0                __extendsfdf2
 .text          0x000153e0        0x0 C:/Program Files/Rowley Associates Limited/CrossWorks for ARM 2.0/lib/libm_v4t_a_le.a(__float32_add.o)
 .text.libc     0x000153e0      0x1a0 C:/Program Files/Rowley Associates Limited/CrossWorks for ARM 2.0/lib/libm_v4t_a_le.a(__float32_add.o)
                0x000153e0                __aeabi_frsub
                0x000153e8                __subsf3
                0x000153e8                __aeabi_fsub
                0x000153e8                __float32_sub
                0x000153ec                __addsf3
                0x000153ec                __float32_add
                0x000153ec                __aeabi_fadd
 .text          0x00015580        0x0 C:/Program Files/Rowley Associates Limited/CrossWorks for ARM 2.0/lib/libm_v4t_a_le.a(__float32_mul.o)
 .text.libc     0x00015580      0x100 C:/Program Files/Rowley Associates Limited/CrossWorks for ARM 2.0/lib/libm_v4t_a_le.a(__float32_mul.o)
                0x00015580                __mulsf3
                0x00015580                __float32_mul
 .text          0x00015680        0x0 C:/Program Files/Rowley Associates Limited/CrossWorks for ARM 2.0/lib/libm_v4t_a_le.a(__float32_div.o)
 .text.libc     0x00015680      0x210 C:/Program Files/Rowley Associates Limited/CrossWorks for ARM 2.0/lib/libm_v4t_a_le.a(__float32_div.o)
                0x00015680                __float32_div
                0x00015680                __divsf3
 .text          0x00015890        0x0 C:/Program Files/Rowley Associates Limited/CrossWorks for ARM 2.0/lib/libm_v4t_a_le.a(__float32_cmp.o)
 .text.libc     0x00015890       0x50 C:/Program Files/Rowley Associates Limited/CrossWorks for ARM 2.0/lib/libm_v4t_a_le.a(__float32_cmp.o)
                0x00015890                __nesf2
                0x00015890                __gtsf2
                0x00015890                __eqsf2
                0x00015890                __cmpsf2
                0x00015890                __ltsf2
                0x00015890                __gesf2
                0x00015890                __lesf2
 .text          0x000158e0        0x0 C:/Program Files/Rowley Associates Limited/CrossWorks for ARM 2.0/lib/libm_v4t_a_le.a(log.o)
 .text.libc     0x000158e0      0x2c0 C:/Program Files/Rowley Associates Limited/CrossWorks for ARM 2.0/lib/libm_v4t_a_le.a(log.o)
                0x000158e0                log
 .text          0x00015ba0        0x0 C:/Program Files/Rowley Associates Limited/CrossWorks for ARM 2.0/lib/libm_v4t_a_le.a(__float64_add.o)
 .text.libc     0x00015ba0      0x350 C:/Program Files/Rowley Associates Limited/CrossWorks for ARM 2.0/lib/libm_v4t_a_le.a(__float64_add.o)
                0x00015ba0                __aeabi_drsub
                0x00015ba8                __aeabi_dsub
                0x00015ba8                __float64_sub
                0x00015ba8                __subdf3
                0x00015bac                __aeabi_dadd
                0x00015bac                __float64_add
                0x00015bac                __adddf3
 .text          0x00015ef0        0x0 C:/Program Files/Rowley Associates Limited/CrossWorks for ARM 2.0/lib/libm_v4t_a_le.a(__float64_mul.o)
 .text.libc     0x00015ef0      0x1b0 C:/Program Files/Rowley Associates Limited/CrossWorks for ARM 2.0/lib/libm_v4t_a_le.a(__float64_mul.o)
                0x00015ef0                __muldf3
                0x00015ef0                __float64_mul
 .text          0x000160a0        0x0 C:/Program Files/Rowley Associates Limited/CrossWorks for ARM 2.0/lib/libm_v4t_a_le.a(__float64_div.o)
 .text.libc     0x000160a0      0x330 C:/Program Files/Rowley Associates Limited/CrossWorks for ARM 2.0/lib/libm_v4t_a_le.a(__float64_div.o)
                0x000160a0                __divdf3
                0x000160a0                __float64_div
                0x000160a0                __aeabi_ddiv
 .text          0x000163d0        0x0 C:/Program Files/Rowley Associates Limited/CrossWorks for ARM 2.0/lib/libm_v4t_a_le.a(__float64_cmp.o)
 .text.libc     0x000163d0       0x70 C:/Program Files/Rowley Associates Limited/CrossWorks for ARM 2.0/lib/libm_v4t_a_le.a(__float64_cmp.o)
                0x000163d0                __eqdf2
                0x000163d0                __gtdf2
                0x000163d0                __ltdf2
                0x000163d0                __ledf2
                0x000163d0                __nedf2
                0x000163d0                __gedf2
                0x000163d0                __cmpdf2
 .text          0x00016440        0x0 C:/Program Files/Rowley Associates Limited/CrossWorks for ARM 2.0/lib/libm_v4t_a_le.a(__float64_isnan.o)
 .text.libc     0x00016440       0x20 C:/Program Files/Rowley Associates Limited/CrossWorks for ARM 2.0/lib/libm_v4t_a_le.a(__float64_isnan.o)
                0x00016440                __float64_isnan
 .text          0x00016460        0x0 C:/Program Files/Rowley Associates Limited/CrossWorks for ARM 2.0/lib/libm_v4t_a_le.a(__float64_infinity.o)
 .text.libc     0x00016460        0x0 C:/Program Files/Rowley Associates Limited/CrossWorks for ARM 2.0/lib/libm_v4t_a_le.a(__float64_infinity.o)
 .text          0x00016460        0x0 C:/Program Files/Rowley Associates Limited/CrossWorks for ARM 2.0/lib/libm_v4t_a_le.a(__float64_nan.o)
 .text.libc     0x00016460        0x0 C:/Program Files/Rowley Associates Limited/CrossWorks for ARM 2.0/lib/libm_v4t_a_le.a(__float64_nan.o)
 .text          0x00016460        0x0 C:/Program Files/Rowley Associates Limited/CrossWorks for ARM 2.0/lib/libm_v4t_a_le.a(__poly1_eval.o)
 .text.libc     0x00016460       0x70 C:/Program Files/Rowley Associates Limited/CrossWorks for ARM 2.0/lib/libm_v4t_a_le.a(__poly1_eval.o)
                0x00016460                __poly1_eval
 .text          0x000164d0        0x0 C:/Program Files/Rowley Associates Limited/CrossWorks for ARM 2.0/lib/libm_v4t_a_le.a(__poly_eval.o)
 .text.libc     0x000164d0       0x5c C:/Program Files/Rowley Associates Limited/CrossWorks for ARM 2.0/lib/libm_v4t_a_le.a(__poly_eval.o)
                0x000164d0                __poly_eval
 .text          0x0001652c        0x0 C:/Program Files/Rowley Associates Limited/CrossWorks for ARM 2.0/lib/libm_v4t_a_le.a(frexp.o)
 .text.libc     0x0001652c       0x60 C:/Program Files/Rowley Associates Limited/CrossWorks for ARM 2.0/lib/libm_v4t_a_le.a(frexp.o)
                0x0001652c                frexp
 .text          0x0001658c        0x0 C:/Program Files/Rowley Associates Limited/CrossWorks for ARM 2.0/lib/libm_v4t_a_le.a(ldexp.o)
 .text.libc     0x0001658c       0x84 C:/Program Files/Rowley Associates Limited/CrossWorks for ARM 2.0/lib/libm_v4t_a_le.a(ldexp.o)
                0x0001658c                ldexp
 .text          0x00016610        0x0 C:/Program Files/Rowley Associates Limited/CrossWorks for ARM 2.0/lib/libc_v4t_a_le.a(__int32_umod.o)
 .text.libc     0x00016610       0x20 C:/Program Files/Rowley Associates Limited/CrossWorks for ARM 2.0/lib/libc_v4t_a_le.a(__int32_umod.o)
                0x00016610                __int32_umod
                0x00016610                __umodsi3
 .text          0x00016630        0x0 C:/Program Files/Rowley Associates Limited/CrossWorks for ARM 2.0/lib/libc_v4t_a_le.a(__int32_div.o)
 .text.libc     0x00016630       0x50 C:/Program Files/Rowley Associates Limited/CrossWorks for ARM 2.0/lib/libc_v4t_a_le.a(__int32_div.o)
                0x00016630                __divsi3
                0x00016630                __int32_div
 .text          0x00016680        0x0 C:/Program Files/Rowley Associates Limited/CrossWorks for ARM 2.0/lib/libc_v4t_a_le.a(__int32_udivmod.o)
 .text.libc     0x00016680       0x30 C:/Program Files/Rowley Associates Limited/CrossWorks for ARM 2.0/lib/libc_v4t_a_le.a(__int32_udivmod.o)
                0x00016680                __int32_udivmod
                0x00016680                __udivsi3
                0x00016680                __int32_udiv
 .text          0x000166b0        0x0 C:/Program Files/Rowley Associates Limited/CrossWorks for ARM 2.0/lib/libc_v4t_a_le.a(strlen.o)
 .text.libc     0x000166b0       0x90 C:/Program Files/Rowley Associates Limited/CrossWorks for ARM 2.0/lib/libc_v4t_a_le.a(strlen.o)
                0x000166b0                strlen
 .text          0x00016740        0x0 C:/Program Files/Rowley Associates Limited/CrossWorks for ARM 2.0/lib/libc_v4t_a_le.a(memcpy.o)
 .text.libc     0x00016740       0x60 C:/Program Files/Rowley Associates Limited/CrossWorks for ARM 2.0/lib/libc_v4t_a_le.a(memcpy.o)
                0x00016740                memcpy
 .text          0x000167a0        0x0 C:/Program Files/Rowley Associates Limited/CrossWorks for ARM 2.0/lib/libc_v4t_a_le.a(memset.o)
 .text.libc     0x000167a0       0xa0 C:/Program Files/Rowley Associates Limited/CrossWorks for ARM 2.0/lib/libc_v4t_a_le.a(memset.o)
                0x000167a0                memset
 .text          0x00016840        0x0 C:/Program Files/Rowley Associates Limited/CrossWorks for ARM 2.0/lib/libc_v4t_a_le.a(strcpy.o)
 .text.libc     0x00016840       0x60 C:/Program Files/Rowley Associates Limited/CrossWorks for ARM 2.0/lib/libc_v4t_a_le.a(strcpy.o)
                0x00016840                strcpy
 .text          0x000168a0        0x0 C:/Program Files/Rowley Associates Limited/CrossWorks for ARM 2.0/lib/libc_v4t_a_le.a(strcmp.o)
 .text.libc     0x000168a0       0x70 C:/Program Files/Rowley Associates Limited/CrossWorks for ARM 2.0/lib/libc_v4t_a_le.a(strcmp.o)
                0x000168a0                strcmp
 .text          0x00016910        0x0 C:/Program Files/Rowley Associates Limited/CrossWorks for ARM 2.0/lib/libc_v4t_a_le.a(memcmp.o)
 .text.libc     0x00016910       0x54 C:/Program Files/Rowley Associates Limited/CrossWorks for ARM 2.0/lib/libc_v4t_a_le.a(memcmp.o)
                0x00016910                memcmp
 .text          0x00016964        0x0 C:/Program Files/Rowley Associates Limited/CrossWorks for ARM 2.0/lib/libc_v4t_a_le.a(strcat.o)
 .text.libc     0x00016964       0x3c C:/Program Files/Rowley Associates Limited/CrossWorks for ARM 2.0/lib/libc_v4t_a_le.a(strcat.o)
                0x00016964                strcat
 .text          0x000169a0        0x0 C:/Program Files/Rowley Associates Limited/CrossWorks for ARM 2.0/lib/libc_v4t_a_le.a(strchr.o)
 .text.libc     0x000169a0       0x40 C:/Program Files/Rowley Associates Limited/CrossWorks for ARM 2.0/lib/libc_v4t_a_le.a(strchr.o)
                0x000169a0                strchr
 .text          0x000169e0        0x0 C:/Program Files/Rowley Associates Limited/CrossWorks for ARM 2.0/lib/libc_v4t_a_le.a(strncmp.o)
 .text.libc     0x000169e0       0x64 C:/Program Files/Rowley Associates Limited/CrossWorks for ARM 2.0/lib/libc_v4t_a_le.a(strncmp.o)
                0x000169e0                strncmp
 .text          0x00016a44        0x0 C:/Program Files/Rowley Associates Limited/CrossWorks for ARM 2.0/lib/libc_v4t_a_le.a(strncpy.o)
 .text.libc     0x00016a44       0x74 C:/Program Files/Rowley Associates Limited/CrossWorks for ARM 2.0/lib/libc_v4t_a_le.a(strncpy.o)
                0x00016a44                strncpy
 .text          0x00016ab8        0x0 C:/Program Files/Rowley Associates Limited/CrossWorks for ARM 2.0/lib/libc_v4t_a_le.a(strrchr.o)
 .text.libc     0x00016ab8       0x44 C:/Program Files/Rowley Associates Limited/CrossWorks for ARM 2.0/lib/libc_v4t_a_le.a(strrchr.o)
                0x00016ab8                strrchr
 .text          0x00016afc        0x0 C:/Program Files/Rowley Associates Limited/CrossWorks for ARM 2.0/lib/libc_v4t_a_le.a(strstr.o)
 .text.libc     0x00016afc       0x98 C:/Program Files/Rowley Associates Limited/CrossWorks for ARM 2.0/lib/libc_v4t_a_le.a(strstr.o)
                0x00016afc                strstr
 .text          0x00016b94        0x0 C:/Program Files/Rowley Associates Limited/CrossWorks for ARM 2.0/lib/libc_v4t_a_le.a(ctype.o)
 .text.libc     0x00016b94      0x17c C:/Program Files/Rowley Associates Limited/CrossWorks for ARM 2.0/lib/libc_v4t_a_le.a(ctype.o)
                0x00016b94                isalpha
                0x00016bb0                isupper
                0x00016bc4                islower
                0x00016bd8                isdigit
                0x00016bec                isxdigit
                0x00016c18                isspace
                0x00016c30                ispunct
                0x00016c6c                isalnum
                0x00016c98                isprint
                0x00016cac                isgraph
                0x00016cc0                iscntrl
                0x00016cd4                tolower
                0x00016ce8                toupper
                0x00016cfc                isblank
 .text          0x00016d10        0x0 C:/Program Files/Rowley Associates Limited/CrossWorks for ARM 2.0/lib/libc_v4t_a_le.a(malloc.o)
 .text.libc     0x00016d10      0x250 C:/Program Files/Rowley Associates Limited/CrossWorks for ARM 2.0/lib/libc_v4t_a_le.a(malloc.o)
                0x00016d10                free
                0x00016e04                malloc
                0x00016ee8                realloc
                0x00016f30                calloc
 .text          0x00016f60        0x0 C:/Program Files/Rowley Associates Limited/CrossWorks for ARM 2.0/lib/libc_v4t_a_le.a(atoi.o)
 .text.libc     0x00016f60       0x38 C:/Program Files/Rowley Associates Limited/CrossWorks for ARM 2.0/lib/libc_v4t_a_le.a(atoi.o)
                0x00016f60                atoi
 .text          0x00016f98        0x0 C:/Program Files/Rowley Associates Limited/CrossWorks for ARM 2.0/lib/libc_v4t_a_le.a(time.o)
 .text.libc     0x00016f98      0x75c C:/Program Files/Rowley Associates Limited/CrossWorks for ARM 2.0/lib/libc_v4t_a_le.a(time.o)
                0x00016f98                difftime
                0x00016fac                checktm
                0x000171f4                mktime
                0x0001743c                localtime_r
                0x00017648                localtime
                0x00017668                gmtime_r
                0x00017680                gmtime
                0x000176a0                ctime_r
                0x000176d0                ctime
 .text          0x000176f4        0x0 C:/Program Files/Rowley Associates Limited/CrossWorks for ARM 2.0/lib/libc_v4t_a_le.a(asctime.o)
 .text.libc     0x000176f4      0x18c C:/Program Files/Rowley Associates Limited/CrossWorks for ARM 2.0/lib/libc_v4t_a_le.a(asctime.o)
                0x00017720                asctime_r
                0x00017868                asctime
 .text          0x00017880        0x0 C:/Program Files/Rowley Associates Limited/CrossWorks for ARM 2.0/lib/libc_v4t_a_le.a(strftime.o)
 .text.libc     0x00017880      0x82c C:/Program Files/Rowley Associates Limited/CrossWorks for ARM 2.0/lib/libc_v4t_a_le.a(strftime.o)
                0x00018058                strftime
 .text          0x000180ac        0x0 C:/Program Files/Rowley Associates Limited/CrossWorks for ARM 2.0/lib/libc_v4t_a_le.a(div.o)
 .text.libc     0x000180ac       0x54 C:/Program Files/Rowley Associates Limited/CrossWorks for ARM 2.0/lib/libc_v4t_a_le.a(div.o)
                0x000180ac                div
 .text          0x00018100        0x0 C:/Program Files/Rowley Associates Limited/CrossWorks for ARM 2.0/lib/libc_v4t_a_le.a(strtol.o)
 .text.libc     0x00018100       0xd4 C:/Program Files/Rowley Associates Limited/CrossWorks for ARM 2.0/lib/libc_v4t_a_le.a(strtol.o)
                0x00018100                strtol
 .text          0x000181d4        0x0 C:/Program Files/Rowley Associates Limited/CrossWorks for ARM 2.0/lib/libc_v4t_a_le.a(ldiv.o)
 .text.libc     0x000181d4       0x54 C:/Program Files/Rowley Associates Limited/CrossWorks for ARM 2.0/lib/libc_v4t_a_le.a(ldiv.o)
                0x000181d4                ldiv
 .text          0x00018228        0x0 C:/Program Files/Rowley Associates Limited/CrossWorks for ARM 2.0/lib/libc_v4t_a_le.a(__int32_mod.o)
 *fill*         0x00018228        0x8 00
 .text.libc     0x00018230       0x50 C:/Program Files/Rowley Associates Limited/CrossWorks for ARM 2.0/lib/libc_v4t_a_le.a(__int32_mod.o)
                0x00018230                __modsi3
                0x00018230                __int32_mod
 .text          0x00018280        0x0 C:/Program Files/Rowley Associates Limited/CrossWorks for ARM 2.0/lib/libc_v4t_a_le.a(__strtoul.o)
 .text.libc     0x00018280      0x128 C:/Program Files/Rowley Associates Limited/CrossWorks for ARM 2.0/lib/libc_v4t_a_le.a(__strtoul.o)
                0x00018280                __strtoul
 .text          0x000183a8        0x0 C:/Program Files/Rowley Associates Limited/CrossWorks for ARM 2.0/lib/libc_v4t_a_le.a(__digit.o)
 .text.libc     0x000183a8       0x54 C:/Program Files/Rowley Associates Limited/CrossWorks for ARM 2.0/lib/libc_v4t_a_le.a(__digit.o)
                0x000183a8                __digit
 .text          0x000183fc        0x0 C:/Program Files/Rowley Associates Limited/CrossWorks for ARM 2.0/lib/libdebugio_v4t_a_le.a(debug_printf.o)
 .text.libc     0x000183fc       0x20 C:/Program Files/Rowley Associates Limited/CrossWorks for ARM 2.0/lib/libdebugio_v4t_a_le.a(debug_printf.o)
                0x000183fc                debug_printf
 .text          0x0001841c        0x0 C:/Program Files/Rowley Associates Limited/CrossWorks for ARM 2.0/lib/libc_targetio_impl_v4t_a_le.a(putchar.o)
 .text.libc     0x0001841c       0x2c C:/Program Files/Rowley Associates Limited/CrossWorks for ARM 2.0/lib/libc_targetio_impl_v4t_a_le.a(putchar.o)
                0x0001841c                putchar
 .text          0x00018448        0x0 C:/Program Files/Rowley Associates Limited/CrossWorks for ARM 2.0/lib/libc_user_libc_v4t_a_le.a(user_libc.o)
 .text.libc     0x00018448       0x2c C:/Program Files/Rowley Associates Limited/CrossWorks for ARM 2.0/lib/libc_user_libc_v4t_a_le.a(user_libc.o)
                0x00018448                __errno
                0x00018454                __heap_lock
                0x00018458                __heap_unlock
                0x0001845c                __printf_lock
                0x00018460                __printf_unlock
                0x00018464                __scanf_lock
                0x00018468                __scanf_unlock
                0x0001846c                __debug_io_lock
                0x00018470                __debug_io_unlock
 .text          0x00018474        0x0 C:/Program Files/Rowley Associates Limited/CrossWorks for ARM 2.0/lib/libdebugio_dcc_v4t_a_le.a(dcc_debug_operations.o)
 .text.libdebugio_dcc
                0x00018474       0x4c C:/Program Files/Rowley Associates Limited/CrossWorks for ARM 2.0/lib/libdebugio_dcc_v4t_a_le.a(dcc_debug_operations.o)
                0x00018474                __do_debug_operation
 .text          0x000184c0        0x0 C:/Program Files/Rowley Associates Limited/CrossWorks for ARM 2.0/lib/libdebugio_dcc_v4t_a_le.a(libarmdi_dcc_write.o)
 .text.libdebugio_dcc
                0x000184c0       0x20 C:/Program Files/Rowley Associates Limited/CrossWorks for ARM 2.0/lib/libdebugio_dcc_v4t_a_le.a(libarmdi_dcc_write.o)
                0x000184c0                libarm_dcc_write
 .text          0x000184e0        0x0 C:/Program Files/Rowley Associates Limited/CrossWorks for ARM 2.0/lib/libdebugio_dcc_v4t_a_le.a(libarm_run_dcc_port_server.o)
 .text.libdebugio_dcc
                0x000184e0      0x234 C:/Program Files/Rowley Associates Limited/CrossWorks for ARM 2.0/lib/libdebugio_dcc_v4t_a_le.a(libarm_run_dcc_port_server.o)
                0x000184e0                libarm_run_dcc_port_server
 .text          0x00018714        0x0 C:/Program Files/Rowley Associates Limited/CrossWorks for ARM 2.0/lib/libdebugio_dcc_v4t_a_le.a(libarmdi_dcc_read.o)
 *fill*         0x00018714        0xc 00
 .text.libdebugio_dcc
                0x00018720       0x20 C:/Program Files/Rowley Associates Limited/CrossWorks for ARM 2.0/lib/libdebugio_dcc_v4t_a_le.a(libarmdi_dcc_read.o)
                0x00018720                libarm_dcc_read
                0x00018740                __text_end__ = (__text_start__ + SIZEOF (.text))
                0x00018740                __text_load_end__ = __text_end__

.vfp11_veneer   0x00000000        0x0
 .vfp11_veneer  0x00000000        0x0 linker stubs

.v4_bx          0x00000000        0x0
 .v4_bx         0x00000000        0x0 linker stubs
                0x00000001                . = ASSERT (((__text_end__ >= __FLASH_segment_start__) && (__text_end__ <= (__FLASH_segment_start__ + 0x80000))), error: .text is too large to fit in FLASH memory segment)
                0x00018740                __dtors_load_start__ = ALIGN (__text_end__, 0x4)

.dtors          0x00018740        0x0
                0x00018740                __dtors_start__ = .
 *(SORT(.dtors.*))
 *(.dtors)
                0x00018740                __dtors_end__ = (__dtors_start__ + SIZEOF (.dtors))
                0x00018740                __dtors_load_end__ = __dtors_end__
                0x00000001                . = ASSERT (((__dtors_end__ >= __FLASH_segment_start__) && (__dtors_end__ <= (__FLASH_segment_start__ + 0x80000))), error: .dtors is too large to fit in FLASH memory segment)
                0x00018740                __ctors_load_start__ = ALIGN (__dtors_end__, 0x4)

.ctors          0x00018740        0x0
                0x00018740                __ctors_start__ = .
 *(SORT(.ctors.*))
 *(.ctors)
                0x00018740                __ctors_end__ = (__ctors_start__ + SIZEOF (.ctors))
                0x00018740                __ctors_load_end__ = __ctors_end__
                0x00000001                . = ASSERT (((__ctors_end__ >= __FLASH_segment_start__) && (__ctors_end__ <= (__FLASH_segment_start__ + 0x80000))), error: .ctors is too large to fit in FLASH memory segment)
                0x00018740                __rodata_load_start__ = ALIGN (__ctors_end__, 0x4)

.rodata         0x00018740     0x7e04
                0x00018740                __rodata_start__ = .
 *(.rodata .rodata.* .gnu.linkonce.r.*)
 .rodata.str1.4
                0x00018740        0x8 ARM Flash Release/main.o
 .rodata        0x00018748       0xb0 ARM Flash Release/i2c.o
 .rodata.str1.4
                0x000187f8      0x19e ARM Flash Release/i2c.o
                                0x1a0 (size before relaxing)
 *fill*         0x00018996        0x2 00
 .rodata.str1.4
                0x00018998        0x8 ARM Flash Release/i2cInt.o
                                  0xc (size before relaxing)
 .rodata        0x000189a0       0x90 ARM Flash Release/usbser.o
 .rodata        0x00018a30        0xc ARM Flash Release/rtc.o
 .rodata.str1.4
                0x00018a3c        0x7 ARM Flash Release/eint3ISR.o
                                  0x8 (size before relaxing)
 *fill*         0x00018a43        0x1 00
 .rodata        0x00018a44      0x2b4 ARM Flash Release/beep.o
 .rodata.str1.4
                0x00018cf8        0x7 ARM Flash Release/args.o
                                 0x10 (size before relaxing)
 *fill*         0x00018cff        0x1 00
 .rodata.str1.4
                0x00018d00       0x7b ARM Flash Release/argsdispatch.o
                                 0x84 (size before relaxing)
 *fill*         0x00018d7b        0x1 00
 .rodata        0x00018d7c      0x3c0 ARM Flash Release/monitor.o
 .rodata.str1.4
                0x0001913c      0xe93 ARM Flash Release/monitor.o
                                0xeb0 (size before relaxing)
 *fill*         0x00019fcf        0x1 00
 .rodata.str1.4
                0x00019fd0        0x7 ARM Flash Release/printf-stdarg.o
                                  0x8 (size before relaxing)
 .rodata.str1.4
                0x00000000        0x7 ARM Flash Release/leds.o
                                  0x4 (size before relaxing)
 *fill*         0x00019fd7        0x1 00
 .rodata.str1.4
                0x00019fd8        0x8 ARM Flash Release/tcs3414.o
 .rodata        0x00019fe0      0x210 ARM Flash Release/mmc.o
 .rodata.str1.4
                0x0001a1f0       0x11 ARM Flash Release/mmc.o
                                 0x14 (size before relaxing)
 *fill*         0x0001a201        0x3 00
 .rodata        0x0001a204        0xc ARM Flash Release/Lcd204_4.o
 .rodata.str1.4
                0x0001a210        0x9 ARM Flash Release/Lcd204_4.o
                                  0xc (size before relaxing)
 *fill*         0x0001a219        0x3 00
 .rodata        0x0001a21c      0x3d4 ARM Flash Release/logging.o
 .rodata.str1.4
                0x0001a5f0       0xc3 ARM Flash Release/logging.o
                                 0xc8 (size before relaxing)
 *fill*         0x0001a6b3        0x1 00
 .rodata.str1.4
                0x0001a6b4       0x34 ARM Flash Release/meas_sm.o
 .rodata.str1.4
                0x0001a6e8        0xd ARM Flash Release/meas_task.o
                                 0x10 (size before relaxing)
 *fill*         0x0001a6f5        0x3 00
 .rodata        0x0001a6f8       0x14 ARM Flash Release/tasks.o
 .rodata.str1.4
                0x0001a70c       0x19 ARM Flash Release/tasks.o
                                 0x20 (size before relaxing)
 *fill*         0x0001a725        0x3 00
 .rodata        0x0001a728        0x8 ARM Flash Release/dhcpc.o
 .rodata.str1.4
                0x00000000        0xc ARM Flash Release/telnetd.o
 .rodata.str1.4
                0x0001a730       0x13 ARM Flash Release/httpd.o
                                 0x18 (size before relaxing)
 *fill*         0x0001a743        0x1 00
 .rodata        0x0001a744       0xa8 ARM Flash Release/httpd-cgi.o
 .rodata.str1.4
                0x0001a7ec       0xdb ARM Flash Release/httpd-cgi.o
                                 0xe0 (size before relaxing)
 *fill*         0x0001a8c7        0x1 00
 .rodata        0x0001a8c8     0x51d8 ARM Flash Release/httpd-fs.o
                0x0001a8c8                file_tcp_shtml
                0x0001a8dc                file_404_html
                0x0001a8f0                file_fade_png
                0x0001a904                file_files_shtml
                0x0001a918                file_footer_html
                0x0001a92c                file_header_html
                0x0001a940                file_index_html
                0x0001a954                file_led_shtml
                0x0001a968                file_lpc2148_jpg
                0x0001a97c                file_stats_shtml
                0x0001a990                file_style_css
 .rodata        0x0001faa0      0x288 ARM Flash Release/http-strings.o
                0x0001faa0                http_http
                0x0001faa8                http_200
                0x0001fab0                http_301
                0x0001fab8                http_302
                0x0001fac0                http_get
                0x0001fac8                http_10
                0x0001fad4                http_11
                0x0001fae0                http_content_type
                0x0001faf0                http_texthtml
                0x0001fafc                http_location
                0x0001fb08                http_host
                0x0001fb10                http_crnl
                0x0001fb14                http_index_html
                0x0001fb20                http_404_html
                0x0001fb2c                http_referer
                0x0001fb38                http_header_200
                0x0001fb8c                http_header_404
                0x0001fbe8                http_content_type_plain
                0x0001fc08                http_content_type_html
                0x0001fc24                http_content_type_css
                0x0001fc40                http_content_type_text
                0x0001fc5c                http_content_type_png
                0x0001fc78                http_content_type_gif
                0x0001fc94                http_content_type_jpg
                0x0001fcb4                http_content_type_binary
                0x0001fce0                http_html
                0x0001fce8                http_shtml
                0x0001fcf0                http_htm
                0x0001fcf8                http_css
                0x0001fd00                http_png
                0x0001fd08                http_gif
                0x0001fd10                http_jpg
                0x0001fd18                http_text
                0x0001fd20                http_txt
 .rodata.str1.4
                0x0001fd28      0x30c ARM Flash Release/uip.o
 .rodata        0x00020034        0x8 ARM Flash Release/uip_arp.o
 .rodata.str1.4
                0x0002003c       0x41 ARM Flash Release/uip-neighbor.o
                                 0x44 (size before relaxing)
 *fill*         0x0002007d        0x3 00
 .rodata.str1.4
                0x00020080       0x1f ARM Flash Release/uiptask.o
                                 0x20 (size before relaxing)
 *fill*         0x0002009f        0x1 00
 .rodata        0x000200a0       0x28 ARM Flash Release/disk.o
 .rodata.str1.4
                0x000200c8       0x51 ARM Flash Release/disk.o
                                 0x54 (size before relaxing)
 *fill*         0x00020119        0x3 00
 .rodata        0x0002011c       0x70 ARM Flash Release/ff.o
 .rodata.str1.4
                0x0002018c       0xd5 ARM Flash Release/ff.o
                                 0xf8 (size before relaxing)
 *fill*         0x00020261        0x3 00
 .rodata.libc   0x00020264       0x28 C:/Program Files/Rowley Associates Limited/CrossWorks for ARM 2.0/lib/libm_v4t_a_le.a(log.o)
 .rodata.libc   0x0002028c        0x8 C:/Program Files/Rowley Associates Limited/CrossWorks for ARM 2.0/lib/libm_v4t_a_le.a(__float64_infinity.o)
                0x0002028c                __float64_infinity
 .rodata.libc   0x00020294        0x8 C:/Program Files/Rowley Associates Limited/CrossWorks for ARM 2.0/lib/libm_v4t_a_le.a(__float64_nan.o)
                0x00020294                __float64_nan
 .rodata.libc   0x0002029c       0x84 C:/Program Files/Rowley Associates Limited/CrossWorks for ARM 2.0/lib/libc_v4t_a_le.a(ctype.o)
                0x0002029c                __ctype
 .rodata.libc   0x00020320       0x68 C:/Program Files/Rowley Associates Limited/CrossWorks for ARM 2.0/lib/libc_v4t_a_le.a(time.o)
 .rodata.libc   0x00020388       0x4c C:/Program Files/Rowley Associates Limited/CrossWorks for ARM 2.0/lib/libc_v4t_a_le.a(asctime.o)
 .rodata.libc   0x000203d4       0x4c C:/Program Files/Rowley Associates Limited/CrossWorks for ARM 2.0/lib/libc_v4t_a_le.a(strftime.o)
 .rodata.libc.str1.4
                0x00020420      0x124 C:/Program Files/Rowley Associates Limited/CrossWorks for ARM 2.0/lib/libc_v4t_a_le.a(strftime.o)
                                0x130 (size before relaxing)
                0x00020544                __rodata_end__ = (__rodata_start__ + SIZEOF (.rodata))
                0x00020544                __rodata_load_end__ = __rodata_end__
                0x00000001                . = ASSERT (((__rodata_end__ >= __FLASH_segment_start__) && (__rodata_end__ <= (__FLASH_segment_start__ + 0x80000))), error: .rodata is too large to fit in FLASH memory segment)
                0x00020544                __fast_load_start__ = ALIGN (__rodata_end__, 0x4)

.fast           0x4000003c        0x0 load address 0x00020544
                0x4000003c                __fast_start__ = .
 *(.fast .fast.*)
                0x4000003c                __fast_end__ = (__fast_start__ + SIZEOF (.fast))
                0x00020544                __fast_load_end__ = (__fast_load_start__ + SIZEOF (.fast))
                0x00000001                . = ASSERT ((((__fast_load_start__ + SIZEOF (.fast)) >= __FLASH_segment_start__) && ((__fast_load_start__ + SIZEOF (.fast)) <= (__FLASH_segment_start__ + 0x80000))), error: .fast is too large to fit in FLASH memory segment)

.fast_run       0x4000003c        0x0
                0x4000003c                __fast_run_start__ = .
                0x4000003c                . = MAX ((__fast_run_start__ + SIZEOF (.fast)), .)
                0x4000003c                __fast_run_end__ = (__fast_run_start__ + SIZEOF (.fast_run))
                0x4000003c                __fast_run_load_end__ = __fast_run_end__
                0x00000001                . = ASSERT (((__fast_run_end__ >= __SRAM_segment_start__) && (__fast_run_end__ <= (__SRAM_segment_start__ + 0x8000))), error: .fast_run is too large to fit in SRAM memory segment)
                0x00020544                __data_load_start__ = ALIGN ((__fast_load_start__ + SIZEOF (.fast)), 0x4)

.data           0x4000003c       0x5c load address 0x00020544
                0x4000003c                __data_start__ = .
 *(.data .data.* .gnu.linkonce.d.*)
 .data          0x4000003c        0x0 ARM Flash Release/main.o
 .data          0x4000003c        0x0 ARM Flash Release/adc.o
 .data          0x4000003c        0x0 ARM Flash Release/cpu.o
 .data          0x4000003c        0x0 ARM Flash Release/i2c.o
 .data          0x4000003c        0x4 ARM Flash Release/i2cInt.o
 .data          0x40000040        0x8 ARM Flash Release/pwm.o
 .data          0x40000048        0x0 ARM Flash Release/spi.o
 .data          0x40000048        0x8 ARM Flash Release/uart0.o
 .data          0x40000050        0x0 ARM Flash Release/uart0ISR.o
 .data          0x40000050        0x8 ARM Flash Release/uart1.o
 .data          0x40000058        0x0 ARM Flash Release/uart1ISR.o
 .data          0x40000058        0x0 ARM Flash Release/usbcontrol.o
 .data          0x40000058        0x0 ARM Flash Release/usbinit.o
 .data          0x40000058        0x0 ARM Flash Release/usbISR.o
 .data          0x40000058        0x0 ARM Flash Release/usbstdreq.o
 .data          0x40000058        0x8 ARM Flash Release/usbser.o
 .data          0x40000060        0x0 ARM Flash Release/rtc.o
 .data          0x40000060        0x0 ARM Flash Release/rtcISR.o
 .data          0x40000060        0x0 ARM Flash Release/reset.o
 .data          0x40000060        0x0 ARM Flash Release/eint0.o
 .data          0x40000060        0x0 ARM Flash Release/eint0ISR.o
 .data          0x40000060        0x0 ARM Flash Release/eint2.o
 .data          0x40000060        0x0 ARM Flash Release/eint2ISR.o
 .data          0x40000060        0x0 ARM Flash Release/eint3.o
 .data          0x40000060        0x0 ARM Flash Release/eint3ISR.o
 .data          0x40000060        0x0 ARM Flash Release/eint1.o
 .data          0x40000060        0x0 ARM Flash Release/eint1ISR.o
 .data          0x40000060        0x0 ARM Flash Release/beep.o
 .data          0x40000060        0x2 ARM Flash Release/timer.o
 .data          0x40000062        0x0 ARM Flash Release/freqCounter.o
 .data          0x40000062        0x0 ARM Flash Release/dac.o
 .data          0x40000062        0x0 ARM Flash Release/args.o
 .data          0x40000062        0x0 ARM Flash Release/argsdispatch.o
 .data          0x40000062        0x0 ARM Flash Release/monitor.o
 .data          0x40000062        0x0 ARM Flash Release/printf-stdarg.o
 *fill*         0x40000062        0x2 00
 .data          0x40000064        0x4 ARM Flash Release/leds.o
 .data          0x40000068        0x0 ARM Flash Release/tcs3414.o
 .data          0x40000068        0x0 ARM Flash Release/mmc.o
 .data          0x40000068        0x0 ARM Flash Release/ssp.o
 .data          0x40000068        0x0 ARM Flash Release/Lcd204_4.o
 .data          0x40000068        0x0 ARM Flash Release/logging.o
 .data          0x40000068        0x8 ARM Flash Release/meas_sm.o
 .data          0x40000070        0x0 ARM Flash Release/meas_task.o
 .data          0x40000070        0x0 ARM Flash Release/crt0.o
 .data          0x40000070        0x0 ARM Flash Release/Philips_LPC210X_Startup.o
 .data          0x40000070        0x0 ARM Flash Release/LPC210x.o
 .data          0x40000070        0x0 ARM Flash Release/VIC.o
 .data          0x40000070        0x0 ARM Flash Release/VIC_irq_handler.o
 .data          0x40000070        0x4 ARM Flash Release/portISR.o
                0x40000070                ulCriticalNesting
 .data          0x40000074        0x0 ARM Flash Release/port.o
 .data          0x40000074        0x0 ARM Flash Release/heap_2.o
 .data          0x40000074        0x4 ARM Flash Release/tasks.o
                0x40000074                uxPreviousTask
 .data          0x40000078        0x0 ARM Flash Release/queue.o
 .data          0x40000078        0x0 ARM Flash Release/list.o
 .data          0x40000078        0x0 ARM Flash Release/dhcpc.o
 .data          0x40000078        0x0 ARM Flash Release/sntp.o
 .data          0x40000078        0x0 ARM Flash Release/telnetd.o
 .data          0x40000078        0x0 ARM Flash Release/httpd.o
 .data          0x40000078       0x14 ARM Flash Release/httpd-cgi.o
 .data          0x4000008c        0x0 ARM Flash Release/httpd-fs.o
 .data          0x4000008c        0x0 ARM Flash Release/http-strings.o
 .data          0x4000008c        0x0 ARM Flash Release/enc28j60.o
 .data          0x4000008c        0x0 ARM Flash Release/memb.o
 .data          0x4000008c        0x0 ARM Flash Release/psock.o
 .data          0x4000008c        0x0 ARM Flash Release/uip.o
 .data          0x4000008c        0x0 ARM Flash Release/uip_arch.o
 .data          0x4000008c        0x0 ARM Flash Release/uip_arp.o
 .data          0x4000008c        0x0 ARM Flash Release/uip_timer.o
 .data          0x4000008c        0x0 ARM Flash Release/uip-fw.o
 .data          0x4000008c        0x0 ARM Flash Release/uiplib.o
 .data          0x4000008c        0x0 ARM Flash Release/uip-neighbor.o
 .data          0x4000008c        0x0 ARM Flash Release/clock.o
 .data          0x4000008c        0x4 ARM Flash Release/uiptask.o
 .data          0x40000090        0x1 ARM Flash Release/disk.o
 .data          0x40000091        0x0 ARM Flash Release/ff.o
 .data          0x40000091        0x0 C:/Users/lukas/AppData/Local/Rowley Associates Limited/CrossWorks for ARM/packages/lib/liblpc2000_v4t_a_le.a(liblpc2000_lpc21xx_get_cclk.o)
 .data          0x40000091        0x0 C:/Users/lukas/AppData/Local/Rowley Associates Limited/CrossWorks for ARM/packages/lib/liblpc2000_v4t_a_le.a(liblpc2000_lpc21xx_get_pclk.o)
 .data          0x40000091        0x0 C:/Program Files/Rowley Associates Limited/CrossWorks for ARM 2.0/lib/libm_v4t_a_le.a(__int32_to_float32.o)
 .data          0x40000091        0x0 C:/Program Files/Rowley Associates Limited/CrossWorks for ARM 2.0/lib/libm_v4t_a_le.a(__int32_to_float64.o)
 .data          0x40000091        0x0 C:/Program Files/Rowley Associates Limited/CrossWorks for ARM 2.0/lib/libm_v4t_a_le.a(__uint32_to_float32.o)
 .data          0x40000091        0x0 C:/Program Files/Rowley Associates Limited/CrossWorks for ARM 2.0/lib/libm_v4t_a_le.a(__uint32_to_float64.o)
 .data          0x40000091        0x0 C:/Program Files/Rowley Associates Limited/CrossWorks for ARM 2.0/lib/libm_v4t_a_le.a(__float32_to_int32.o)
 .data          0x40000091        0x0 C:/Program Files/Rowley Associates Limited/CrossWorks for ARM 2.0/lib/libm_v4t_a_le.a(__float32_to_uint32.o)
 .data          0x40000091        0x0 C:/Program Files/Rowley Associates Limited/CrossWorks for ARM 2.0/lib/libm_v4t_a_le.a(__float64_to_int32.o)
 .data          0x40000091        0x0 C:/Program Files/Rowley Associates Limited/CrossWorks for ARM 2.0/lib/libm_v4t_a_le.a(__float32_to_float64.o)
 .data          0x40000091        0x0 C:/Program Files/Rowley Associates Limited/CrossWorks for ARM 2.0/lib/libm_v4t_a_le.a(__float32_add.o)
 .data          0x40000091        0x0 C:/Program Files/Rowley Associates Limited/CrossWorks for ARM 2.0/lib/libm_v4t_a_le.a(__float32_mul.o)
 .data          0x40000091        0x0 C:/Program Files/Rowley Associates Limited/CrossWorks for ARM 2.0/lib/libm_v4t_a_le.a(__float32_div.o)
 .data          0x40000091        0x0 C:/Program Files/Rowley Associates Limited/CrossWorks for ARM 2.0/lib/libm_v4t_a_le.a(__float32_cmp.o)
 .data          0x40000091        0x0 C:/Program Files/Rowley Associates Limited/CrossWorks for ARM 2.0/lib/libm_v4t_a_le.a(log.o)
 .data          0x40000091        0x0 C:/Program Files/Rowley Associates Limited/CrossWorks for ARM 2.0/lib/libm_v4t_a_le.a(__float64_add.o)
 .data          0x40000091        0x0 C:/Program Files/Rowley Associates Limited/CrossWorks for ARM 2.0/lib/libm_v4t_a_le.a(__float64_mul.o)
 .data          0x40000091        0x0 C:/Program Files/Rowley Associates Limited/CrossWorks for ARM 2.0/lib/libm_v4t_a_le.a(__float64_div.o)
 .data          0x40000091        0x0 C:/Program Files/Rowley Associates Limited/CrossWorks for ARM 2.0/lib/libm_v4t_a_le.a(__float64_cmp.o)
 .data          0x40000091        0x0 C:/Program Files/Rowley Associates Limited/CrossWorks for ARM 2.0/lib/libm_v4t_a_le.a(__float64_isnan.o)
 .data          0x40000091        0x0 C:/Program Files/Rowley Associates Limited/CrossWorks for ARM 2.0/lib/libm_v4t_a_le.a(__float64_infinity.o)
 .data          0x40000091        0x0 C:/Program Files/Rowley Associates Limited/CrossWorks for ARM 2.0/lib/libm_v4t_a_le.a(__float64_nan.o)
 .data          0x40000091        0x0 C:/Program Files/Rowley Associates Limited/CrossWorks for ARM 2.0/lib/libm_v4t_a_le.a(__poly1_eval.o)
 .data          0x40000091        0x0 C:/Program Files/Rowley Associates Limited/CrossWorks for ARM 2.0/lib/libm_v4t_a_le.a(__poly_eval.o)
 .data          0x40000091        0x0 C:/Program Files/Rowley Associates Limited/CrossWorks for ARM 2.0/lib/libm_v4t_a_le.a(frexp.o)
 .data          0x40000091        0x0 C:/Program Files/Rowley Associates Limited/CrossWorks for ARM 2.0/lib/libm_v4t_a_le.a(ldexp.o)
 .data          0x40000091        0x0 C:/Program Files/Rowley Associates Limited/CrossWorks for ARM 2.0/lib/libc_v4t_a_le.a(__int32_umod.o)
 .data          0x40000091        0x0 C:/Program Files/Rowley Associates Limited/CrossWorks for ARM 2.0/lib/libc_v4t_a_le.a(__int32_div.o)
 .data          0x40000091        0x0 C:/Program Files/Rowley Associates Limited/CrossWorks for ARM 2.0/lib/libc_v4t_a_le.a(__int32_udivmod.o)
 .data          0x40000091        0x0 C:/Program Files/Rowley Associates Limited/CrossWorks for ARM 2.0/lib/libc_v4t_a_le.a(strlen.o)
 .data          0x40000091        0x0 C:/Program Files/Rowley Associates Limited/CrossWorks for ARM 2.0/lib/libc_v4t_a_le.a(memcpy.o)
 .data          0x40000091        0x0 C:/Program Files/Rowley Associates Limited/CrossWorks for ARM 2.0/lib/libc_v4t_a_le.a(memset.o)
 .data          0x40000091        0x0 C:/Program Files/Rowley Associates Limited/CrossWorks for ARM 2.0/lib/libc_v4t_a_le.a(strcpy.o)
 .data          0x40000091        0x0 C:/Program Files/Rowley Associates Limited/CrossWorks for ARM 2.0/lib/libc_v4t_a_le.a(strcmp.o)
 .data          0x40000091        0x0 C:/Program Files/Rowley Associates Limited/CrossWorks for ARM 2.0/lib/libc_v4t_a_le.a(memcmp.o)
 .data          0x40000091        0x0 C:/Program Files/Rowley Associates Limited/CrossWorks for ARM 2.0/lib/libc_v4t_a_le.a(strcat.o)
 .data          0x40000091        0x0 C:/Program Files/Rowley Associates Limited/CrossWorks for ARM 2.0/lib/libc_v4t_a_le.a(strchr.o)
 .data          0x40000091        0x0 C:/Program Files/Rowley Associates Limited/CrossWorks for ARM 2.0/lib/libc_v4t_a_le.a(strncmp.o)
 .data          0x40000091        0x0 C:/Program Files/Rowley Associates Limited/CrossWorks for ARM 2.0/lib/libc_v4t_a_le.a(strncpy.o)
 .data          0x40000091        0x0 C:/Program Files/Rowley Associates Limited/CrossWorks for ARM 2.0/lib/libc_v4t_a_le.a(strrchr.o)
 .data          0x40000091        0x0 C:/Program Files/Rowley Associates Limited/CrossWorks for ARM 2.0/lib/libc_v4t_a_le.a(strstr.o)
 .data          0x40000091        0x0 C:/Program Files/Rowley Associates Limited/CrossWorks for ARM 2.0/lib/libc_v4t_a_le.a(ctype.o)
 .data          0x40000091        0x0 C:/Program Files/Rowley Associates Limited/CrossWorks for ARM 2.0/lib/libc_v4t_a_le.a(malloc.o)
 *fill*         0x40000091        0x3 00
 .data.libc     0x40000094        0x4 C:/Program Files/Rowley Associates Limited/CrossWorks for ARM 2.0/lib/libc_v4t_a_le.a(malloc.o)
 .data          0x40000098        0x0 C:/Program Files/Rowley Associates Limited/CrossWorks for ARM 2.0/lib/libc_v4t_a_le.a(atoi.o)
 .data          0x40000098        0x0 C:/Program Files/Rowley Associates Limited/CrossWorks for ARM 2.0/lib/libc_v4t_a_le.a(time.o)
 .data          0x40000098        0x0 C:/Program Files/Rowley Associates Limited/CrossWorks for ARM 2.0/lib/libc_v4t_a_le.a(asctime.o)
 .data          0x40000098        0x0 C:/Program Files/Rowley Associates Limited/CrossWorks for ARM 2.0/lib/libc_v4t_a_le.a(strftime.o)
 .data          0x40000098        0x0 C:/Program Files/Rowley Associates Limited/CrossWorks for ARM 2.0/lib/libc_v4t_a_le.a(div.o)
 .data          0x40000098        0x0 C:/Program Files/Rowley Associates Limited/CrossWorks for ARM 2.0/lib/libc_v4t_a_le.a(strtol.o)
 .data          0x40000098        0x0 C:/Program Files/Rowley Associates Limited/CrossWorks for ARM 2.0/lib/libc_v4t_a_le.a(ldiv.o)
 .data          0x40000098        0x0 C:/Program Files/Rowley Associates Limited/CrossWorks for ARM 2.0/lib/libc_v4t_a_le.a(__int32_mod.o)
 .data          0x40000098        0x0 C:/Program Files/Rowley Associates Limited/CrossWorks for ARM 2.0/lib/libc_v4t_a_le.a(__strtoul.o)
 .data          0x40000098        0x0 C:/Program Files/Rowley Associates Limited/CrossWorks for ARM 2.0/lib/libc_v4t_a_le.a(__digit.o)
 .data          0x40000098        0x0 C:/Program Files/Rowley Associates Limited/CrossWorks for ARM 2.0/lib/libdebugio_v4t_a_le.a(debug_printf.o)
 .data          0x40000098        0x0 C:/Program Files/Rowley Associates Limited/CrossWorks for ARM 2.0/lib/libc_targetio_impl_v4t_a_le.a(putchar.o)
 .data          0x40000098        0x0 C:/Program Files/Rowley Associates Limited/CrossWorks for ARM 2.0/lib/libc_user_libc_v4t_a_le.a(user_libc.o)
 .data          0x40000098        0x0 C:/Program Files/Rowley Associates Limited/CrossWorks for ARM 2.0/lib/libdebugio_dcc_v4t_a_le.a(dcc_debug_operations.o)
 .data          0x40000098        0x0 C:/Program Files/Rowley Associates Limited/CrossWorks for ARM 2.0/lib/libdebugio_dcc_v4t_a_le.a(libarmdi_dcc_write.o)
 .data          0x40000098        0x0 C:/Program Files/Rowley Associates Limited/CrossWorks for ARM 2.0/lib/libdebugio_dcc_v4t_a_le.a(libarm_run_dcc_port_server.o)
 .data          0x40000098        0x0 C:/Program Files/Rowley Associates Limited/CrossWorks for ARM 2.0/lib/libdebugio_dcc_v4t_a_le.a(libarmdi_dcc_read.o)
                0x40000098                __data_end__ = (__data_start__ + SIZEOF (.data))
                0x000205a0                __data_load_end__ = (__data_load_start__ + SIZEOF (.data))
                0x00000001                . = ASSERT ((((__data_load_start__ + SIZEOF (.data)) >= __FLASH_segment_start__) && ((__data_load_start__ + SIZEOF (.data)) <= (__FLASH_segment_start__ + 0x80000))), error: .data is too large to fit in FLASH memory segment)

.data_run       0x4000003c       0x5c load address 0x00020544
                0x4000003c                __data_run_start__ = .
                0x40000098                . = MAX ((__data_run_start__ + SIZEOF (.data)), .)
 *fill*         0x4000003c       0x5c 00
                0x40000098                __data_run_end__ = (__data_run_start__ + SIZEOF (.data_run))
                0x40000098                __data_run_load_end__ = __data_run_end__
                0x00000001                . = ASSERT (((__data_run_end__ >= __SRAM_segment_start__) && (__data_run_end__ <= (__SRAM_segment_start__ + 0x8000))), error: .data_run is too large to fit in SRAM memory segment)
                0x40000098                __bss_load_start__ = ALIGN (__data_run_end__, 0x4)

.bss            0x40000098     0x6418
                0x40000098                __bss_start__ = .
 *(.bss .bss.* .gnu.linkonce.b.*)
 .bss           0x40000098        0x0 ARM Flash Release/main.o
 .bss           0x40000098        0x0 ARM Flash Release/adc.o
 .bss           0x40000098        0x0 ARM Flash Release/cpu.o
 .bss           0x40000098        0x4 ARM Flash Release/i2c.o
                0x40000098                i2cErrno
 .bss           0x4000009c       0x60 ARM Flash Release/i2cInt.o
 .bss           0x400000fc        0x0 ARM Flash Release/pwm.o
 .bss           0x400000fc        0x0 ARM Flash Release/spi.o
 .bss           0x400000fc        0xc ARM Flash Release/uart0.o
 .bss           0x40000108        0xc ARM Flash Release/uart0ISR.o
 .bss           0x40000114        0xc ARM Flash Release/uart1.o
 .bss           0x40000120        0xc ARM Flash Release/uart1ISR.o
 .bss           0x4000012c       0x34 ARM Flash Release/usbcontrol.o
 .bss           0x40000160        0x8 ARM Flash Release/usbinit.o
 .bss           0x40000168       0x48 ARM Flash Release/usbISR.o
 .bss           0x400001b0        0xc ARM Flash Release/usbstdreq.o
 .bss           0x400001bc       0x58 ARM Flash Release/usbser.o
 .bss           0x40000214        0x0 ARM Flash Release/rtc.o
 .bss           0x40000214        0x4 ARM Flash Release/rtcISR.o
 .bss           0x40000218        0x0 ARM Flash Release/reset.o
 .bss           0x40000218        0x0 ARM Flash Release/eint0.o
 .bss           0x40000218        0x0 ARM Flash Release/eint0ISR.o
 .bss           0x40000218        0x0 ARM Flash Release/eint2.o
 .bss           0x40000218        0x0 ARM Flash Release/eint2ISR.o
 .bss           0x40000218        0x0 ARM Flash Release/eint3.o
 .bss           0x40000218        0x4 ARM Flash Release/eint3ISR.o
                0x40000218                count
 .bss           0x4000021c        0x0 ARM Flash Release/eint1.o
 .bss           0x4000021c        0x0 ARM Flash Release/eint1ISR.o
 .bss           0x4000021c        0x0 ARM Flash Release/beep.o
 .bss           0x4000021c       0x34 ARM Flash Release/timer.o
                0x4000024c                counter
 .bss           0x40000250        0x0 ARM Flash Release/freqCounter.o
 .bss           0x40000250        0x0 ARM Flash Release/dac.o
 .bss           0x40000250        0x0 ARM Flash Release/args.o
 .bss           0x40000250        0x0 ARM Flash Release/argsdispatch.o
 .bss           0x40000250      0x3d8 ARM Flash Release/monitor.o
                0x40000624                activeCommandList
 .bss           0x40000628        0x0 ARM Flash Release/printf-stdarg.o
 .bss           0x40000628        0x0 ARM Flash Release/leds.o
 .bss           0x40000628        0x1 ARM Flash Release/tcs3414.o
 *fill*         0x40000629        0x3 00
 .bss           0x4000062c       0x2c ARM Flash Release/mmc.o
 .bss           0x40000658        0x0 ARM Flash Release/ssp.o
 .bss           0x40000658        0x0 ARM Flash Release/Lcd204_4.o
 .bss           0x40000658      0x24c ARM Flash Release/logging.o
 .bss           0x400008a4       0x20 ARM Flash Release/meas_sm.o
 .bss           0x400008c4        0x0 ARM Flash Release/meas_task.o
 .bss           0x400008c4        0x0 ARM Flash Release/crt0.o
 .bss           0x400008c4        0x0 ARM Flash Release/Philips_LPC210X_Startup.o
 .bss           0x400008c4        0x4 ARM Flash Release/LPC210x.o
 .bss           0x400008c8       0x80 ARM Flash Release/VIC.o
 .bss           0x40000948        0x0 ARM Flash Release/VIC_irq_handler.o
 .bss           0x40000948        0x0 ARM Flash Release/portISR.o
 .bss           0x40000948        0x0 ARM Flash Release/port.o
 .bss           0x40000948     0x4018 ARM Flash Release/heap_2.o
 .bss           0x40004960       0x34 ARM Flash Release/tasks.o
                0x40004960                uxSchedulerSuspended
                0x40004964                uxCurrentNumberOfTasks
                0x40004968                xNumOfOverflows
                0x4000496c                xTickCount
                0x40004970                xMissedYield
                0x40004974                pxCurrentTCB
                0x40004978                uxTopReadyPriority
                0x4000497c                uxMissedTicks
                0x40004980                xTracing
                0x40004984                uxTopUsedPriority
                0x40004988                uxTasksDeleted
                0x4000498c                uxTaskNumber
                0x40004990                xSchedulerRunning
 .bss           0x40004994        0x0 ARM Flash Release/queue.o
 .bss           0x40004994        0x0 ARM Flash Release/list.o
 .bss           0x40004994        0x4 ARM Flash Release/dhcpc.o
 .bss           0x40004998        0x4 ARM Flash Release/sntp.o
 .bss           0x4000499c      0x294 ARM Flash Release/telnetd.o
 .bss           0x40004c30        0x0 ARM Flash Release/httpd.o
 .bss           0x40004c30        0x0 ARM Flash Release/httpd-cgi.o
 .bss           0x40004c30       0x18 ARM Flash Release/httpd-fs.o
 .bss           0x40004c48        0x0 ARM Flash Release/http-strings.o
 .bss           0x40004c48        0x8 ARM Flash Release/enc28j60.o
                0x40004c48                xENC28J60Semaphore
                0x40004c4c                ethRxPointer
 .bss           0x40004c50        0x0 ARM Flash Release/memb.o
 .bss           0x40004c50        0x0 ARM Flash Release/psock.o
 .bss           0x40004c50       0x1c ARM Flash Release/uip.o
                0x40004c60                uip_timeoffset
                0x40004c64                uip_ethaddr
 .bss           0x40004c6c        0x0 ARM Flash Release/uip_arch.o
 .bss           0x40004c6c       0x64 ARM Flash Release/uip_arp.o
 .bss           0x40004cd0        0x0 ARM Flash Release/uip_timer.o
 .bss           0x40004cd0       0x28 ARM Flash Release/uip-fw.o
 .bss           0x40004cf8        0x0 ARM Flash Release/uiplib.o
 .bss           0x40004cf8       0x80 ARM Flash Release/uip-neighbor.o
 .bss           0x40004d78        0x0 ARM Flash Release/clock.o
 .bss           0x40004d78        0xc ARM Flash Release/uiptask.o
 .bss           0x40004d84        0xc ARM Flash Release/disk.o
 .bss           0x40004d90        0x8 ARM Flash Release/ff.o
 .bss           0x40004d98        0x0 C:/Users/lukas/AppData/Local/Rowley Associates Limited/CrossWorks for ARM/packages/lib/liblpc2000_v4t_a_le.a(liblpc2000_lpc21xx_get_cclk.o)
 .bss           0x40004d98        0x0 C:/Users/lukas/AppData/Local/Rowley Associates Limited/CrossWorks for ARM/packages/lib/liblpc2000_v4t_a_le.a(liblpc2000_lpc21xx_get_pclk.o)
 .bss           0x40004d98        0x0 C:/Program Files/Rowley Associates Limited/CrossWorks for ARM 2.0/lib/libm_v4t_a_le.a(__int32_to_float32.o)
 .bss           0x40004d98        0x0 C:/Program Files/Rowley Associates Limited/CrossWorks for ARM 2.0/lib/libm_v4t_a_le.a(__int32_to_float64.o)
 .bss           0x40004d98        0x0 C:/Program Files/Rowley Associates Limited/CrossWorks for ARM 2.0/lib/libm_v4t_a_le.a(__uint32_to_float32.o)
 .bss           0x40004d98        0x0 C:/Program Files/Rowley Associates Limited/CrossWorks for ARM 2.0/lib/libm_v4t_a_le.a(__uint32_to_float64.o)
 .bss           0x40004d98        0x0 C:/Program Files/Rowley Associates Limited/CrossWorks for ARM 2.0/lib/libm_v4t_a_le.a(__float32_to_int32.o)
 .bss           0x40004d98        0x0 C:/Program Files/Rowley Associates Limited/CrossWorks for ARM 2.0/lib/libm_v4t_a_le.a(__float32_to_uint32.o)
 .bss           0x40004d98        0x0 C:/Program Files/Rowley Associates Limited/CrossWorks for ARM 2.0/lib/libm_v4t_a_le.a(__float64_to_int32.o)
 .bss           0x40004d98        0x0 C:/Program Files/Rowley Associates Limited/CrossWorks for ARM 2.0/lib/libm_v4t_a_le.a(__float32_to_float64.o)
 .bss           0x40004d98        0x0 C:/Program Files/Rowley Associates Limited/CrossWorks for ARM 2.0/lib/libm_v4t_a_le.a(__float32_add.o)
 .bss           0x40004d98        0x0 C:/Program Files/Rowley Associates Limited/CrossWorks for ARM 2.0/lib/libm_v4t_a_le.a(__float32_mul.o)
 .bss           0x40004d98        0x0 C:/Program Files/Rowley Associates Limited/CrossWorks for ARM 2.0/lib/libm_v4t_a_le.a(__float32_div.o)
 .bss           0x40004d98        0x0 C:/Program Files/Rowley Associates Limited/CrossWorks for ARM 2.0/lib/libm_v4t_a_le.a(__float32_cmp.o)
 .bss           0x40004d98        0x0 C:/Program Files/Rowley Associates Limited/CrossWorks for ARM 2.0/lib/libm_v4t_a_le.a(log.o)
 .bss           0x40004d98        0x0 C:/Program Files/Rowley Associates Limited/CrossWorks for ARM 2.0/lib/libm_v4t_a_le.a(__float64_add.o)
 .bss           0x40004d98        0x0 C:/Program Files/Rowley Associates Limited/CrossWorks for ARM 2.0/lib/libm_v4t_a_le.a(__float64_mul.o)
 .bss           0x40004d98        0x0 C:/Program Files/Rowley Associates Limited/CrossWorks for ARM 2.0/lib/libm_v4t_a_le.a(__float64_div.o)
 .bss           0x40004d98        0x0 C:/Program Files/Rowley Associates Limited/CrossWorks for ARM 2.0/lib/libm_v4t_a_le.a(__float64_cmp.o)
 .bss           0x40004d98        0x0 C:/Program Files/Rowley Associates Limited/CrossWorks for ARM 2.0/lib/libm_v4t_a_le.a(__float64_isnan.o)
 .bss           0x40004d98        0x0 C:/Program Files/Rowley Associates Limited/CrossWorks for ARM 2.0/lib/libm_v4t_a_le.a(__float64_infinity.o)
 .bss           0x40004d98        0x0 C:/Program Files/Rowley Associates Limited/CrossWorks for ARM 2.0/lib/libm_v4t_a_le.a(__float64_nan.o)
 .bss           0x40004d98        0x0 C:/Program Files/Rowley Associates Limited/CrossWorks for ARM 2.0/lib/libm_v4t_a_le.a(__poly1_eval.o)
 .bss           0x40004d98        0x0 C:/Program Files/Rowley Associates Limited/CrossWorks for ARM 2.0/lib/libm_v4t_a_le.a(__poly_eval.o)
 .bss           0x40004d98        0x0 C:/Program Files/Rowley Associates Limited/CrossWorks for ARM 2.0/lib/libm_v4t_a_le.a(frexp.o)
 .bss           0x40004d98        0x0 C:/Program Files/Rowley Associates Limited/CrossWorks for ARM 2.0/lib/libm_v4t_a_le.a(ldexp.o)
 .bss           0x40004d98        0x0 C:/Program Files/Rowley Associates Limited/CrossWorks for ARM 2.0/lib/libc_v4t_a_le.a(__int32_umod.o)
 .bss           0x40004d98        0x0 C:/Program Files/Rowley Associates Limited/CrossWorks for ARM 2.0/lib/libc_v4t_a_le.a(__int32_div.o)
 .bss           0x40004d98        0x0 C:/Program Files/Rowley Associates Limited/CrossWorks for ARM 2.0/lib/libc_v4t_a_le.a(__int32_udivmod.o)
 .bss           0x40004d98        0x0 C:/Program Files/Rowley Associates Limited/CrossWorks for ARM 2.0/lib/libc_v4t_a_le.a(strlen.o)
 .bss           0x40004d98        0x0 C:/Program Files/Rowley Associates Limited/CrossWorks for ARM 2.0/lib/libc_v4t_a_le.a(memcpy.o)
 .bss           0x40004d98        0x0 C:/Program Files/Rowley Associates Limited/CrossWorks for ARM 2.0/lib/libc_v4t_a_le.a(memset.o)
 .bss           0x40004d98        0x0 C:/Program Files/Rowley Associates Limited/CrossWorks for ARM 2.0/lib/libc_v4t_a_le.a(strcpy.o)
 .bss           0x40004d98        0x0 C:/Program Files/Rowley Associates Limited/CrossWorks for ARM 2.0/lib/libc_v4t_a_le.a(strcmp.o)
 .bss           0x40004d98        0x0 C:/Program Files/Rowley Associates Limited/CrossWorks for ARM 2.0/lib/libc_v4t_a_le.a(memcmp.o)
 .bss           0x40004d98        0x0 C:/Program Files/Rowley Associates Limited/CrossWorks for ARM 2.0/lib/libc_v4t_a_le.a(strcat.o)
 .bss           0x40004d98        0x0 C:/Program Files/Rowley Associates Limited/CrossWorks for ARM 2.0/lib/libc_v4t_a_le.a(strchr.o)
 .bss           0x40004d98        0x0 C:/Program Files/Rowley Associates Limited/CrossWorks for ARM 2.0/lib/libc_v4t_a_le.a(strncmp.o)
 .bss           0x40004d98        0x0 C:/Program Files/Rowley Associates Limited/CrossWorks for ARM 2.0/lib/libc_v4t_a_le.a(strncpy.o)
 .bss           0x40004d98        0x0 C:/Program Files/Rowley Associates Limited/CrossWorks for ARM 2.0/lib/libc_v4t_a_le.a(strrchr.o)
 .bss           0x40004d98        0x0 C:/Program Files/Rowley Associates Limited/CrossWorks for ARM 2.0/lib/libc_v4t_a_le.a(strstr.o)
 .bss           0x40004d98        0x0 C:/Program Files/Rowley Associates Limited/CrossWorks for ARM 2.0/lib/libc_v4t_a_le.a(ctype.o)
 .bss           0x40004d98        0x0 C:/Program Files/Rowley Associates Limited/CrossWorks for ARM 2.0/lib/libc_v4t_a_le.a(malloc.o)
 .bss           0x40004d98        0x0 C:/Program Files/Rowley Associates Limited/CrossWorks for ARM 2.0/lib/libc_v4t_a_le.a(atoi.o)
 .bss           0x40004d98        0x0 C:/Program Files/Rowley Associates Limited/CrossWorks for ARM 2.0/lib/libc_v4t_a_le.a(time.o)
 .bss.libc      0x40004d98       0x24 C:/Program Files/Rowley Associates Limited/CrossWorks for ARM 2.0/lib/libc_v4t_a_le.a(time.o)
 .bss           0x40004dbc        0x0 C:/Program Files/Rowley Associates Limited/CrossWorks for ARM 2.0/lib/libc_v4t_a_le.a(asctime.o)
 .bss.libc      0x40004dbc       0x1c C:/Program Files/Rowley Associates Limited/CrossWorks for ARM 2.0/lib/libc_v4t_a_le.a(asctime.o)
 .bss           0x40004dd8        0x0 C:/Program Files/Rowley Associates Limited/CrossWorks for ARM 2.0/lib/libc_v4t_a_le.a(strftime.o)
 .bss           0x40004dd8        0x0 C:/Program Files/Rowley Associates Limited/CrossWorks for ARM 2.0/lib/libc_v4t_a_le.a(div.o)
 .bss           0x40004dd8        0x0 C:/Program Files/Rowley Associates Limited/CrossWorks for ARM 2.0/lib/libc_v4t_a_le.a(strtol.o)
 .bss           0x40004dd8        0x0 C:/Program Files/Rowley Associates Limited/CrossWorks for ARM 2.0/lib/libc_v4t_a_le.a(ldiv.o)
 .bss           0x40004dd8        0x0 C:/Program Files/Rowley Associates Limited/CrossWorks for ARM 2.0/lib/libc_v4t_a_le.a(__int32_mod.o)
 .bss           0x40004dd8        0x0 C:/Program Files/Rowley Associates Limited/CrossWorks for ARM 2.0/lib/libc_v4t_a_le.a(__strtoul.o)
 .bss           0x40004dd8        0x0 C:/Program Files/Rowley Associates Limited/CrossWorks for ARM 2.0/lib/libc_v4t_a_le.a(__digit.o)
 .bss           0x40004dd8        0x0 C:/Program Files/Rowley Associates Limited/CrossWorks for ARM 2.0/lib/libdebugio_v4t_a_le.a(debug_printf.o)
 .bss           0x40004dd8        0x0 C:/Program Files/Rowley Associates Limited/CrossWorks for ARM 2.0/lib/libc_targetio_impl_v4t_a_le.a(putchar.o)
 .bss           0x40004dd8        0x0 C:/Program Files/Rowley Associates Limited/CrossWorks for ARM 2.0/lib/libc_user_libc_v4t_a_le.a(user_libc.o)
 .bss.libc      0x40004dd8        0x4 C:/Program Files/Rowley Associates Limited/CrossWorks for ARM 2.0/lib/libc_user_libc_v4t_a_le.a(user_libc.o)
 .bss           0x40004ddc        0x0 C:/Program Files/Rowley Associates Limited/CrossWorks for ARM 2.0/lib/libdebugio_dcc_v4t_a_le.a(dcc_debug_operations.o)
 .bss           0x40004ddc        0x0 C:/Program Files/Rowley Associates Limited/CrossWorks for ARM 2.0/lib/libdebugio_dcc_v4t_a_le.a(libarmdi_dcc_write.o)
 .bss           0x40004ddc        0x0 C:/Program Files/Rowley Associates Limited/CrossWorks for ARM 2.0/lib/libdebugio_dcc_v4t_a_le.a(libarm_run_dcc_port_server.o)
 .bss           0x40004ddc        0x0 C:/Program Files/Rowley Associates Limited/CrossWorks for ARM 2.0/lib/libdebugio_dcc_v4t_a_le.a(libarmdi_dcc_read.o)
 *(COMMON)
 COMMON         0x40004ddc      0x99c ARM Flash Release/main.o
                0x40004ddc                Fatfs
                0x4000500c                ts
                0x40005010                LOG_ITEM_STATE
                0x40005014                tencounter
                0x40005018                FileAllTimeLog
                0x4000523c                FileContLog
                0x40005460                FileDayLog
                0x40005684                cdaylog_entry_item
                0x40005694                slog_entry_item
                0x400056a8                tencounts
                0x400056d0                buf
                0x400056e8                measure_timestamp
                0x400056f4                meas_op_item
                0x40005758                taskHandles
                0x40005774                log_file
 COMMON         0x40005778       0x1e ARM Flash Release/logging.o
                0x40005778                time_buf
 *fill*         0x40005796        0x2 00
 COMMON         0x40005798      0x110 ARM Flash Release/tasks.o
                0x40005798                pxReadyTasksLists
                0x400057fc                xPendingReadyList
                0x40005810                pcTraceBuffer
                0x40005814                xSuspendedTaskList
                0x40005828                pxDelayedTaskList
                0x4000582c                pxOverflowDelayedTaskList
                0x40005830                pcTraceBufferEnd
                0x40005834                pcTraceBufferStart
                0x40005838                xDelayedTaskList1
                0x4000584c                xTasksWaitingTermination
                0x40005860                pcStatusString
                0x40005894                xDelayedTaskList2
 COMMON         0x400058a8       0x50 ARM Flash Release/queue.o
                0x400058a8                xQueueRegistry
 COMMON         0x400058f8      0xbb8 ARM Flash Release/uip.o
                0x400058f8                uip_len
                0x400058fc                uip_sappdata
                0x40005900                uip_acc32
                0x40005904                uip_flags
                0x40005908                uip_udp_conn
                0x4000590c                uip_appdata
                0x40005910                uip_conn
                0x40005914                uip_conns
                0x40005d4c                uip_sntpaddr
                0x40005d50                uip_listenports
                0x40005d58                uip_draddr
                0x40005d5c                uip_stat
                0x40005d90                uip_netmask
                0x40005d94                uip_hostaddr
                0x40005d98                uip_buf
                0x4000637c                uip_slen
                0x40006380                uip_udp_conns
                0x400064b0                __bss_end__ = (__bss_start__ + SIZEOF (.bss))
                0x400064b0                __bss_load_end__ = __bss_end__
                0x00000001                . = ASSERT (((__bss_end__ >= __SRAM_segment_start__) && (__bss_end__ <= (__SRAM_segment_start__ + 0x8000))), error: .bss is too large to fit in SRAM memory segment)
                0x400064b0                __non_init_load_start__ = ALIGN (__bss_end__, 0x4)

.non_init       0x400064b0        0x0
                0x400064b0                __non_init_start__ = .
 *(.non_init .non_init.*)
                0x400064b0                __non_init_end__ = (__non_init_start__ + SIZEOF (.non_init))
                0x400064b0                __non_init_load_end__ = __non_init_end__
                0x00000001                . = ASSERT (((__non_init_end__ >= __SRAM_segment_start__) && (__non_init_end__ <= (__SRAM_segment_start__ + 0x8000))), error: .non_init is too large to fit in SRAM memory segment)
                0x400064b0                __heap_load_start__ = ALIGN (__non_init_end__, 0x4)

.heap           0x400064b0      0x400
                0x400064b0                __heap_start__ = .
 *(.heap .heap.*)
 .heap          0x400064b0        0x0 ARM Flash Release/crt0.o
                0x400068b0                . = ALIGN (MAX ((__heap_start__ + __HEAPSIZE__), .), 0x4)
 *fill*         0x400064b0      0x400 00
                0x400068b0                __heap_end__ = (__heap_start__ + SIZEOF (.heap))
                0x400068b0                __heap_load_end__ = __heap_end__
                0x00000001                . = ASSERT (((__heap_end__ >= __SRAM_segment_start__) && (__heap_end__ <= (__SRAM_segment_start__ + 0x8000))), error: .heap is too large to fit in SRAM memory segment)
                0x400068b0                __stack_load_start__ = ALIGN (__heap_end__, 0x4)

.stack          0x400068b0      0x400
                0x400068b0                __stack_start__ = .
 *(.stack .stack.*)
 .stack         0x400068b0        0x0 ARM Flash Release/crt0.o
                0x40006cb0                . = ALIGN (MAX ((__stack_start__ + __STACKSIZE__), .), 0x4)
 *fill*         0x400068b0      0x400 00
                0x40006cb0                __stack_end__ = (__stack_start__ + SIZEOF (.stack))
                0x40006cb0                __stack_load_end__ = __stack_end__
                0x00000001                . = ASSERT (((__stack_end__ >= __SRAM_segment_start__) && (__stack_end__ <= (__SRAM_segment_start__ + 0x8000))), error: .stack is too large to fit in SRAM memory segment)
                0x40006cb0                __stack_irq_load_start__ = ALIGN (__stack_end__, 0x4)

.stack_irq      0x40006cb0      0x400
                0x40006cb0                __stack_irq_start__ = .
 *(.stack_irq .stack_irq.*)
 .stack_irq     0x40006cb0        0x0 ARM Flash Release/crt0.o
                0x400070b0                . = ALIGN (MAX ((__stack_irq_start__ + __STACKSIZE_IRQ__), .), 0x4)
 *fill*         0x40006cb0      0x400 00
                0x400070b0                __stack_irq_end__ = (__stack_irq_start__ + SIZEOF (.stack_irq))
                0x400070b0                __stack_irq_load_end__ = __stack_irq_end__
                0x00000001                . = ASSERT (((__stack_irq_end__ >= __SRAM_segment_start__) && (__stack_irq_end__ <= (__SRAM_segment_start__ + 0x8000))), error: .stack_irq is too large to fit in SRAM memory segment)
                0x400070b0                __stack_fiq_load_start__ = ALIGN (__stack_irq_end__, 0x4)

.stack_fiq      0x400070b0       0x20
                0x400070b0                __stack_fiq_start__ = .
 *(.stack_fiq .stack_fiq.*)
 .stack_fiq     0x400070b0        0x0 ARM Flash Release/crt0.o
                0x400070d0                . = ALIGN (MAX ((__stack_fiq_start__ + __STACKSIZE_FIQ__), .), 0x4)
 *fill*         0x400070b0       0x20 00
                0x400070d0                __stack_fiq_end__ = (__stack_fiq_start__ + SIZEOF (.stack_fiq))
                0x400070d0                __stack_fiq_load_end__ = __stack_fiq_end__
                0x00000001                . = ASSERT (((__stack_fiq_end__ >= __SRAM_segment_start__) && (__stack_fiq_end__ <= (__SRAM_segment_start__ + 0x8000))), error: .stack_fiq is too large to fit in SRAM memory segment)
                0x400070d0                __stack_svc_load_start__ = ALIGN (__stack_fiq_end__, 0x4)

.stack_svc      0x400070d0      0x100
                0x400070d0                __stack_svc_start__ = .
 *(.stack_svc .stack_svc.*)
 .stack_svc     0x400070d0        0x0 ARM Flash Release/crt0.o
                0x400071d0                . = ALIGN (MAX ((__stack_svc_start__ + __STACKSIZE_SVC__), .), 0x4)
 *fill*         0x400070d0      0x100 00
                0x400071d0                __stack_svc_end__ = (__stack_svc_start__ + SIZEOF (.stack_svc))
                0x400071d0                __stack_svc_load_end__ = __stack_svc_end__
                0x00000001                . = ASSERT (((__stack_svc_end__ >= __SRAM_segment_start__) && (__stack_svc_end__ <= (__SRAM_segment_start__ + 0x8000))), error: .stack_svc is too large to fit in SRAM memory segment)
                0x400071d0                __stack_abt_load_start__ = ALIGN (__stack_svc_end__, 0x4)

.stack_abt      0x400071d0        0x8
                0x400071d0                __stack_abt_start__ = .
 *(.stack_abt .stack_abt.*)
 .stack_abt     0x400071d0        0x0 ARM Flash Release/crt0.o
                0x400071d8                . = ALIGN (MAX ((__stack_abt_start__ + __STACKSIZE_ABT__), .), 0x4)
 *fill*         0x400071d0        0x8 00
                0x400071d8                __stack_abt_end__ = (__stack_abt_start__ + SIZEOF (.stack_abt))
                0x400071d8                __stack_abt_load_end__ = __stack_abt_end__
                0x00000001                . = ASSERT (((__stack_abt_end__ >= __SRAM_segment_start__) && (__stack_abt_end__ <= (__SRAM_segment_start__ + 0x8000))), error: .stack_abt is too large to fit in SRAM memory segment)
                0x400071d8                __stack_und_load_start__ = ALIGN (__stack_abt_end__, 0x4)

.stack_und      0x400071d8        0x8
                0x400071d8                __stack_und_start__ = .
 *(.stack_und .stack_und.*)
 .stack_und     0x400071d8        0x0 ARM Flash Release/crt0.o
                0x400071e0                . = ALIGN (MAX ((__stack_und_start__ + __STACKSIZE_UND__), .), 0x4)
 *fill*         0x400071d8        0x8 00
                0x400071e0                __stack_und_end__ = (__stack_und_start__ + SIZEOF (.stack_und))
                0x400071e0                __stack_und_load_end__ = __stack_und_end__
                0x00000001                . = ASSERT (((__stack_und_end__ >= __SRAM_segment_start__) && (__stack_und_end__ <= (__SRAM_segment_start__ + 0x8000))), error: .stack_und is too large to fit in SRAM memory segment)
                0x400071e0                __tbss_load_start__ = ALIGN (__stack_und_end__, 0x4)

.tbss           0x400071e0        0x0
                0x400071e0                __tbss_start__ = .
 *(.tbss .tbss.*)
                0x400071e0                __tbss_end__ = (__tbss_start__ + SIZEOF (.tbss))
                0x400071e0                __tbss_load_end__ = __tbss_end__
                0x00000001                . = ASSERT (((__tbss_end__ >= __SRAM_segment_start__) && (__tbss_end__ <= (__SRAM_segment_start__ + 0x8000))), error: .tbss is too large to fit in SRAM memory segment)
                0x000205a0                __tdata_load_start__ = ALIGN ((__data_load_start__ + SIZEOF (.data)), 0x4)

.tdata          0x400071e0        0x0 load address 0x000205a0
                0x400071e0                __tdata_start__ = .
 *(.tdata .tdata.*)
                0x400071e0                __tdata_end__ = (__tdata_start__ + SIZEOF (.tdata))
                0x000205a0                __tdata_load_end__ = (__tdata_load_start__ + SIZEOF (.tdata))
                0x000205a0                __FLASH_segment_used_end__ = (ALIGN ((__data_load_start__ + SIZEOF (.data)), 0x4) + SIZEOF (.tdata))
                0x00000001                . = ASSERT ((((__tdata_load_start__ + SIZEOF (.tdata)) >= __FLASH_segment_start__) && ((__tdata_load_start__ + SIZEOF (.tdata)) <= (__FLASH_segment_start__ + 0x80000))), error: .tdata is too large to fit in FLASH memory segment)

.tdata_run      0x400071e0        0x0
                0x400071e0                __tdata_run_start__ = .
                0x400071e0                . = MAX ((__tdata_run_start__ + SIZEOF (.tdata)), .)
                0x400071e0                __tdata_run_end__ = (__tdata_run_start__ + SIZEOF (.tdata_run))
                0x400071e0                __tdata_run_load_end__ = __tdata_run_end__
                0x400071e0                __SRAM_segment_used_end__ = (ALIGN (__tbss_end__, 0x4) + SIZEOF (.tdata_run))
                0x00000001                . = ASSERT (((__tdata_run_end__ >= __SRAM_segment_start__) && (__tdata_run_end__ <= (__SRAM_segment_start__ + 0x8000))), error: .tdata_run is too large to fit in SRAM memory segment)
START GROUP
LOAD ARM Flash Release/main.o
LOAD ARM Flash Release/adc.o
LOAD ARM Flash Release/cpu.o
LOAD ARM Flash Release/i2c.o
LOAD ARM Flash Release/i2cInt.o
LOAD ARM Flash Release/pwm.o
LOAD ARM Flash Release/spi.o
LOAD ARM Flash Release/uart0.o
LOAD ARM Flash Release/uart0ISR.o
LOAD ARM Flash Release/uart1.o
LOAD ARM Flash Release/uart1ISR.o
LOAD ARM Flash Release/usbcontrol.o
LOAD ARM Flash Release/usbinit.o
LOAD ARM Flash Release/usbISR.o
LOAD ARM Flash Release/usbstdreq.o
LOAD ARM Flash Release/usbser.o
LOAD ARM Flash Release/rtc.o
LOAD ARM Flash Release/rtcISR.o
LOAD ARM Flash Release/reset.o
LOAD ARM Flash Release/eint0.o
LOAD ARM Flash Release/eint0ISR.o
LOAD ARM Flash Release/eint2.o
LOAD ARM Flash Release/eint2ISR.o
LOAD ARM Flash Release/eint3.o
LOAD ARM Flash Release/eint3ISR.o
LOAD ARM Flash Release/eint1.o
LOAD ARM Flash Release/eint1ISR.o
LOAD ARM Flash Release/beep.o
LOAD ARM Flash Release/timer.o
LOAD ARM Flash Release/freqCounter.o
LOAD ARM Flash Release/dac.o
LOAD ARM Flash Release/args.o
LOAD ARM Flash Release/argsdispatch.o
LOAD ARM Flash Release/monitor.o
LOAD ARM Flash Release/printf-stdarg.o
LOAD ARM Flash Release/leds.o
LOAD ARM Flash Release/tcs3414.o
LOAD ARM Flash Release/mmc.o
LOAD ARM Flash Release/ssp.o
LOAD ARM Flash Release/Lcd204_4.o
LOAD ARM Flash Release/logging.o
LOAD ARM Flash Release/meas_sm.o
LOAD ARM Flash Release/meas_task.o
LOAD ARM Flash Release/crt0.o
LOAD ARM Flash Release/Philips_LPC210X_Startup.o
LOAD ARM Flash Release/LPC210x.o
LOAD ARM Flash Release/VIC.o
LOAD ARM Flash Release/VIC_irq_handler.o
LOAD ARM Flash Release/portISR.o
LOAD ARM Flash Release/port.o
LOAD ARM Flash Release/heap_2.o
LOAD ARM Flash Release/tasks.o
LOAD ARM Flash Release/queue.o
LOAD ARM Flash Release/list.o
LOAD ARM Flash Release/dhcpc.o
LOAD ARM Flash Release/sntp.o
LOAD ARM Flash Release/telnetd.o
LOAD ARM Flash Release/httpd.o
LOAD ARM Flash Release/httpd-cgi.o
LOAD ARM Flash Release/httpd-fs.o
LOAD ARM Flash Release/http-strings.o
LOAD ARM Flash Release/enc28j60.o
LOAD ARM Flash Release/memb.o
LOAD ARM Flash Release/psock.o
LOAD ARM Flash Release/uip.o
LOAD ARM Flash Release/uip_arch.o
LOAD ARM Flash Release/uip_arp.o
LOAD ARM Flash Release/uip_timer.o
LOAD ARM Flash Release/uip-fw.o
LOAD ARM Flash Release/uiplib.o
LOAD ARM Flash Release/uip-neighbor.o
LOAD ARM Flash Release/clock.o
LOAD ARM Flash Release/uiptask.o
LOAD ARM Flash Release/disk.o
LOAD ARM Flash Release/ff.o
LOAD C:/Users/lukas/AppData/Local/Rowley Associates Limited/CrossWorks for ARM/packages/lib/liblpc2000_v4t_a_le.a
LOAD C:/Program Files/Rowley Associates Limited/CrossWorks for ARM 2.0/lib/libarm_v4t_a_le.a
LOAD C:/Program Files/Rowley Associates Limited/CrossWorks for ARM 2.0/lib/libdebugio_dcc_v4t_a_le.a
LOAD C:/Program Files/Rowley Associates Limited/CrossWorks for ARM 2.0/lib/libm_v4t_a_le.a
LOAD C:/Program Files/Rowley Associates Limited/CrossWorks for ARM 2.0/lib/libc_v4t_a_le.a
LOAD C:/Program Files/Rowley Associates Limited/CrossWorks for ARM 2.0/lib/libcpp_v4t_a_le.a
LOAD C:/Program Files/Rowley Associates Limited/CrossWorks for ARM 2.0/lib/libdebugio_v4t_a_le.a
LOAD C:/Program Files/Rowley Associates Limited/CrossWorks for ARM 2.0/lib/libc_targetio_impl_v4t_a_le.a
LOAD C:/Program Files/Rowley Associates Limited/CrossWorks for ARM 2.0/lib/lib_vfprintf_long_v4t_a_le.a
LOAD C:/Program Files/Rowley Associates Limited/CrossWorks for ARM 2.0/lib/lib_vfscanf_long_v4t_a_le.a
LOAD C:/Program Files/Rowley Associates Limited/CrossWorks for ARM 2.0/lib/libc_user_libc_v4t_a_le.a
END GROUP
OUTPUT(ARM Flash Release/FreeRTOS_2148.elf elf32-littlearm)

.debug_abbrev   0x00000000     0x17c4
 .debug_abbrev  0x00000000       0x5a ARM Flash Release/main.o
 .debug_abbrev  0x0000005a       0x36 ARM Flash Release/adc.o
 .debug_abbrev  0x00000090       0x23 ARM Flash Release/cpu.o
 .debug_abbrev  0x000000b3       0x23 ARM Flash Release/i2c.o
 .debug_abbrev  0x000000d6       0x96 ARM Flash Release/i2cInt.o
 .debug_abbrev  0x0000016c       0x36 ARM Flash Release/pwm.o
 .debug_abbrev  0x000001a2       0x23 ARM Flash Release/spi.o
 .debug_abbrev  0x000001c5       0x36 ARM Flash Release/uart0.o
 .debug_abbrev  0x000001fb       0x47 ARM Flash Release/uart0ISR.o
 .debug_abbrev  0x00000242       0x36 ARM Flash Release/uart1.o
 .debug_abbrev  0x00000278       0x47 ARM Flash Release/uart1ISR.o
 .debug_abbrev  0x000002bf       0x47 ARM Flash Release/usbcontrol.o
 .debug_abbrev  0x00000306       0x34 ARM Flash Release/usbinit.o
 .debug_abbrev  0x0000033a       0x98 ARM Flash Release/usbISR.o
 .debug_abbrev  0x000003d2       0x76 ARM Flash Release/usbstdreq.o
 .debug_abbrev  0x00000448       0x69 ARM Flash Release/usbser.o
 .debug_abbrev  0x000004b1       0x67 ARM Flash Release/rtc.o
 .debug_abbrev  0x00000518       0x34 ARM Flash Release/rtcISR.o
 .debug_abbrev  0x0000054c       0x23 ARM Flash Release/reset.o
 .debug_abbrev  0x0000056f       0x36 ARM Flash Release/eint0.o
 .debug_abbrev  0x000005a5       0x30 ARM Flash Release/eint0ISR.o
 .debug_abbrev  0x000005d5       0x36 ARM Flash Release/eint2.o
 .debug_abbrev  0x0000060b       0x34 ARM Flash Release/eint2ISR.o
 .debug_abbrev  0x0000063f       0x36 ARM Flash Release/eint3.o
 .debug_abbrev  0x00000675       0x30 ARM Flash Release/eint3ISR.o
 .debug_abbrev  0x000006a5       0x36 ARM Flash Release/eint1.o
 .debug_abbrev  0x000006db       0x30 ARM Flash Release/eint1ISR.o
 .debug_abbrev  0x0000070b       0x47 ARM Flash Release/beep.o
 .debug_abbrev  0x00000752       0x43 ARM Flash Release/timer.o
 .debug_abbrev  0x00000795        0x1 ARM Flash Release/freqCounter.o
 .debug_abbrev  0x00000796       0x36 ARM Flash Release/dac.o
 .debug_abbrev  0x000007cc       0x30 ARM Flash Release/args.o
 .debug_abbrev  0x000007fc       0x23 ARM Flash Release/argsdispatch.o
 .debug_abbrev  0x0000081f       0x52 ARM Flash Release/monitor.o
 .debug_abbrev  0x00000871       0x5a ARM Flash Release/printf-stdarg.o
 .debug_abbrev  0x000008cb       0x54 ARM Flash Release/leds.o
 .debug_abbrev  0x0000091f       0x52 ARM Flash Release/tcs3414.o
 .debug_abbrev  0x00000971       0x54 ARM Flash Release/mmc.o
 .debug_abbrev  0x000009c5       0x65 ARM Flash Release/ssp.o
 .debug_abbrev  0x00000a2a       0x6d ARM Flash Release/Lcd204_4.o
 .debug_abbrev  0x00000a97       0x7a ARM Flash Release/logging.o
 .debug_abbrev  0x00000b11       0x67 ARM Flash Release/meas_sm.o
 .debug_abbrev  0x00000b78       0x47 ARM Flash Release/meas_task.o
 .debug_abbrev  0x00000bbf       0x47 ARM Flash Release/LPC210x.o
 .debug_abbrev  0x00000c06       0x47 ARM Flash Release/VIC.o
 .debug_abbrev  0x00000c4d       0x23 ARM Flash Release/portISR.o
 .debug_abbrev  0x00000c70       0x43 ARM Flash Release/port.o
 .debug_abbrev  0x00000cb3       0x36 ARM Flash Release/heap_2.o
 .debug_abbrev  0x00000ce9       0x36 ARM Flash Release/tasks.o
 .debug_abbrev  0x00000d1f       0x67 ARM Flash Release/queue.o
 .debug_abbrev  0x00000d86       0x23 ARM Flash Release/list.o
 .debug_abbrev  0x00000da9       0x83 ARM Flash Release/dhcpc.o
 .debug_abbrev  0x00000e2c       0x30 ARM Flash Release/sntp.o
 .debug_abbrev  0x00000e5c       0x83 ARM Flash Release/telnetd.o
 .debug_abbrev  0x00000edf       0x52 ARM Flash Release/httpd.o
 .debug_abbrev  0x00000f31       0x45 ARM Flash Release/httpd-cgi.o
 .debug_abbrev  0x00000f76       0x47 ARM Flash Release/httpd-fs.o
 .debug_abbrev  0x00000fbd        0x1 ARM Flash Release/http-strings.o
 .debug_abbrev  0x00000fbe       0x54 ARM Flash Release/enc28j60.o
 .debug_abbrev  0x00001012       0x23 ARM Flash Release/memb.o
 .debug_abbrev  0x00001035       0x78 ARM Flash Release/psock.o
 .debug_abbrev  0x000010ad       0x5a ARM Flash Release/uip.o
 .debug_abbrev  0x00001107       0x34 ARM Flash Release/uip_arch.o
 .debug_abbrev  0x0000113b       0x47 ARM Flash Release/uip_arp.o
 .debug_abbrev  0x00001182       0x36 ARM Flash Release/uip_timer.o
 .debug_abbrev  0x000011b8       0x63 ARM Flash Release/uip-fw.o
 .debug_abbrev  0x0000121b       0x23 ARM Flash Release/uiplib.o
 .debug_abbrev  0x0000123e       0x47 ARM Flash Release/uip-neighbor.o
 .debug_abbrev  0x00001285       0x23 ARM Flash Release/clock.o
 .debug_abbrev  0x000012a8       0x47 ARM Flash Release/uiptask.o
 .debug_abbrev  0x000012ef       0x49 ARM Flash Release/disk.o
 .debug_abbrev  0x00001338       0x76 ARM Flash Release/ff.o
 .debug_abbrev  0x000013ae       0x23 C:/Program Files/Rowley Associates Limited/CrossWorks for ARM 2.0/lib/libm_v4t_a_le.a(log.o)
 .debug_abbrev  0x000013d1        0x1 C:/Program Files/Rowley Associates Limited/CrossWorks for ARM 2.0/lib/libm_v4t_a_le.a(__float64_infinity.o)
 .debug_abbrev  0x000013d2        0x1 C:/Program Files/Rowley Associates Limited/CrossWorks for ARM 2.0/lib/libm_v4t_a_le.a(__float64_nan.o)
 .debug_abbrev  0x000013d3       0x23 C:/Program Files/Rowley Associates Limited/CrossWorks for ARM 2.0/lib/libm_v4t_a_le.a(__poly1_eval.o)
 .debug_abbrev  0x000013f6       0x23 C:/Program Files/Rowley Associates Limited/CrossWorks for ARM 2.0/lib/libm_v4t_a_le.a(__poly_eval.o)
 .debug_abbrev  0x00001419       0x23 C:/Program Files/Rowley Associates Limited/CrossWorks for ARM 2.0/lib/libm_v4t_a_le.a(frexp.o)
 .debug_abbrev  0x0000143c       0x23 C:/Program Files/Rowley Associates Limited/CrossWorks for ARM 2.0/lib/libm_v4t_a_le.a(ldexp.o)
 .debug_abbrev  0x0000145f       0x23 C:/Program Files/Rowley Associates Limited/CrossWorks for ARM 2.0/lib/libc_v4t_a_le.a(memcmp.o)
 .debug_abbrev  0x00001482       0x23 C:/Program Files/Rowley Associates Limited/CrossWorks for ARM 2.0/lib/libc_v4t_a_le.a(strcat.o)
 .debug_abbrev  0x000014a5       0x23 C:/Program Files/Rowley Associates Limited/CrossWorks for ARM 2.0/lib/libc_v4t_a_le.a(strchr.o)
 .debug_abbrev  0x000014c8       0x23 C:/Program Files/Rowley Associates Limited/CrossWorks for ARM 2.0/lib/libc_v4t_a_le.a(strncmp.o)
 .debug_abbrev  0x000014eb       0x23 C:/Program Files/Rowley Associates Limited/CrossWorks for ARM 2.0/lib/libc_v4t_a_le.a(strncpy.o)
 .debug_abbrev  0x0000150e       0x23 C:/Program Files/Rowley Associates Limited/CrossWorks for ARM 2.0/lib/libc_v4t_a_le.a(strrchr.o)
 .debug_abbrev  0x00001531       0x23 C:/Program Files/Rowley Associates Limited/CrossWorks for ARM 2.0/lib/libc_v4t_a_le.a(strstr.o)
 .debug_abbrev  0x00001554       0x23 C:/Program Files/Rowley Associates Limited/CrossWorks for ARM 2.0/lib/libc_v4t_a_le.a(ctype.o)
 .debug_abbrev  0x00001577       0x23 C:/Program Files/Rowley Associates Limited/CrossWorks for ARM 2.0/lib/libc_v4t_a_le.a(malloc.o)
 .debug_abbrev  0x0000159a       0x23 C:/Program Files/Rowley Associates Limited/CrossWorks for ARM 2.0/lib/libc_v4t_a_le.a(atoi.o)
 .debug_abbrev  0x000015bd       0x23 C:/Program Files/Rowley Associates Limited/CrossWorks for ARM 2.0/lib/libc_v4t_a_le.a(time.o)
 .debug_abbrev  0x000015e0       0x34 C:/Program Files/Rowley Associates Limited/CrossWorks for ARM 2.0/lib/libc_v4t_a_le.a(asctime.o)
 .debug_abbrev  0x00001614       0x52 C:/Program Files/Rowley Associates Limited/CrossWorks for ARM 2.0/lib/libc_v4t_a_le.a(strftime.o)
 .debug_abbrev  0x00001666       0x23 C:/Program Files/Rowley Associates Limited/CrossWorks for ARM 2.0/lib/libc_v4t_a_le.a(div.o)
 .debug_abbrev  0x00001689       0x23 C:/Program Files/Rowley Associates Limited/CrossWorks for ARM 2.0/lib/libc_v4t_a_le.a(strtol.o)
 .debug_abbrev  0x000016ac       0x23 C:/Program Files/Rowley Associates Limited/CrossWorks for ARM 2.0/lib/libc_v4t_a_le.a(ldiv.o)
 .debug_abbrev  0x000016cf       0x23 C:/Program Files/Rowley Associates Limited/CrossWorks for ARM 2.0/lib/libc_v4t_a_le.a(__strtoul.o)
 .debug_abbrev  0x000016f2       0x23 C:/Program Files/Rowley Associates Limited/CrossWorks for ARM 2.0/lib/libc_v4t_a_le.a(__digit.o)
 .debug_abbrev  0x00001715       0x23 C:/Program Files/Rowley Associates Limited/CrossWorks for ARM 2.0/lib/libdebugio_v4t_a_le.a(debug_printf.o)
 .debug_abbrev  0x00001738       0x23 C:/Program Files/Rowley Associates Limited/CrossWorks for ARM 2.0/lib/libc_targetio_impl_v4t_a_le.a(putchar.o)
 .debug_abbrev  0x0000175b       0x23 C:/Program Files/Rowley Associates Limited/CrossWorks for ARM 2.0/lib/libc_user_libc_v4t_a_le.a(user_libc.o)
 .debug_abbrev  0x0000177e       0x23 C:/Program Files/Rowley Associates Limited/CrossWorks for ARM 2.0/lib/libdebugio_dcc_v4t_a_le.a(dcc_debug_operations.o)
 .debug_abbrev  0x000017a1       0x23 C:/Program Files/Rowley Associates Limited/CrossWorks for ARM 2.0/lib/libdebugio_dcc_v4t_a_le.a(libarm_run_dcc_port_server.o)

.debug_info     0x00000000     0x3b44
 .debug_info    0x00000000       0x6d ARM Flash Release/main.o
 .debug_info    0x0000006d       0xf9 ARM Flash Release/adc.o
 .debug_info    0x00000166       0x42 ARM Flash Release/cpu.o
 .debug_info    0x000001a8       0x42 ARM Flash Release/i2c.o
 .debug_info    0x000001ea      0x130 ARM Flash Release/i2cInt.o
 .debug_info    0x0000031a       0x6c ARM Flash Release/pwm.o
 .debug_info    0x00000386       0x42 ARM Flash Release/spi.o
 .debug_info    0x000003c8       0x92 ARM Flash Release/uart0.o
 .debug_info    0x0000045a       0x57 ARM Flash Release/uart0ISR.o
 .debug_info    0x000004b1       0x92 ARM Flash Release/uart1.o
 .debug_info    0x00000543       0x57 ARM Flash Release/uart1ISR.o
 .debug_info    0x0000059a       0x7d ARM Flash Release/usbcontrol.o
 .debug_info    0x00000617       0x43 ARM Flash Release/usbinit.o
 .debug_info    0x0000065a      0x1a7 ARM Flash Release/usbISR.o
 .debug_info    0x00000801       0x8d ARM Flash Release/usbstdreq.o
 .debug_info    0x0000088e       0xe4 ARM Flash Release/usbser.o
 .debug_info    0x00000972      0x15d ARM Flash Release/rtc.o
 .debug_info    0x00000acf       0x55 ARM Flash Release/rtcISR.o
 .debug_info    0x00000b24       0x30 ARM Flash Release/reset.o
 .debug_info    0x00000b54       0x44 ARM Flash Release/eint0.o
 .debug_info    0x00000b98       0x38 ARM Flash Release/eint0ISR.o
 .debug_info    0x00000bd0       0x44 ARM Flash Release/eint2.o
 .debug_info    0x00000c14       0x41 ARM Flash Release/eint2ISR.o
 .debug_info    0x00000c55       0x44 ARM Flash Release/eint3.o
 .debug_info    0x00000c99       0x3a ARM Flash Release/eint3ISR.o
 .debug_info    0x00000cd3       0x44 ARM Flash Release/eint1.o
 .debug_info    0x00000d17       0x38 ARM Flash Release/eint1ISR.o
 .debug_info    0x00000d4f       0x93 ARM Flash Release/beep.o
 .debug_info    0x00000de2       0xcc ARM Flash Release/timer.o
 .debug_info    0x00000eae        0x0 ARM Flash Release/freqCounter.o
 .debug_info    0x00000eae       0x56 ARM Flash Release/dac.o
 .debug_info    0x00000f04       0x4e ARM Flash Release/args.o
 .debug_info    0x00000f52       0x32 ARM Flash Release/argsdispatch.o
 .debug_info    0x00000f84      0x2b0 ARM Flash Release/monitor.o
 .debug_info    0x00001234       0xba ARM Flash Release/printf-stdarg.o
 .debug_info    0x000012ee       0x85 ARM Flash Release/leds.o
 .debug_info    0x00001373       0x9a ARM Flash Release/tcs3414.o
 .debug_info    0x0000140d      0x111 ARM Flash Release/mmc.o
 .debug_info    0x0000151e       0xe4 ARM Flash Release/ssp.o
 .debug_info    0x00001602      0x121 ARM Flash Release/Lcd204_4.o
 .debug_info    0x00001723      0x1a6 ARM Flash Release/logging.o
 .debug_info    0x000018c9      0x204 ARM Flash Release/meas_sm.o
 .debug_info    0x00001acd       0x93 ARM Flash Release/meas_task.o
 .debug_info    0x00001b60       0x57 ARM Flash Release/LPC210x.o
 .debug_info    0x00001bb7       0x69 ARM Flash Release/VIC.o
 .debug_info    0x00001c20       0x78 ARM Flash Release/portISR.o
 .debug_info    0x00001c98       0x5e ARM Flash Release/port.o
 .debug_info    0x00001cf6       0x6c ARM Flash Release/heap_2.o
 .debug_info    0x00001d62      0x32e ARM Flash Release/tasks.o
 .debug_info    0x00002090      0x1d2 ARM Flash Release/queue.o
 .debug_info    0x00002262       0x78 ARM Flash Release/list.o
 .debug_info    0x000022da       0xdd ARM Flash Release/dhcpc.o
 .debug_info    0x000023b7       0x5e ARM Flash Release/sntp.o
 .debug_info    0x00002415      0x12b ARM Flash Release/telnetd.o
 .debug_info    0x00002540       0xbd ARM Flash Release/httpd.o
 .debug_info    0x000025fd       0xdb ARM Flash Release/httpd-cgi.o
 .debug_info    0x000026d8       0x69 ARM Flash Release/httpd-fs.o
 .debug_info    0x00002741        0x0 ARM Flash Release/http-strings.o
 .debug_info    0x00002741      0x171 ARM Flash Release/enc28j60.o
 .debug_info    0x000028b2       0x5a ARM Flash Release/memb.o
 .debug_info    0x0000290c       0xf0 ARM Flash Release/psock.o
 .debug_info    0x000029fc      0x11f ARM Flash Release/uip.o
 .debug_info    0x00002b1b       0x95 ARM Flash Release/uip_arch.o
 .debug_info    0x00002bb0       0x97 ARM Flash Release/uip_arp.o
 .debug_info    0x00002c47       0x6c ARM Flash Release/uip_timer.o
 .debug_info    0x00002cb3       0xb5 ARM Flash Release/uip-fw.o
 .debug_info    0x00002d68       0x32 ARM Flash Release/uiplib.o
 .debug_info    0x00002d9a       0x91 ARM Flash Release/uip-neighbor.o
 .debug_info    0x00002e2b       0x32 ARM Flash Release/clock.o
 .debug_info    0x00002e5d       0xbc ARM Flash Release/uiptask.o
 .debug_info    0x00002f19       0xcd ARM Flash Release/disk.o
 .debug_info    0x00002fe6      0x2b0 ARM Flash Release/ff.o
 .debug_info    0x00003296       0x32 C:/Program Files/Rowley Associates Limited/CrossWorks for ARM 2.0/lib/libm_v4t_a_le.a(log.o)
 .debug_info    0x000032c8        0x0 C:/Program Files/Rowley Associates Limited/CrossWorks for ARM 2.0/lib/libm_v4t_a_le.a(__float64_infinity.o)
 .debug_info    0x000032c8        0x0 C:/Program Files/Rowley Associates Limited/CrossWorks for ARM 2.0/lib/libm_v4t_a_le.a(__float64_nan.o)
 .debug_info    0x000032c8       0x32 C:/Program Files/Rowley Associates Limited/CrossWorks for ARM 2.0/lib/libm_v4t_a_le.a(__poly1_eval.o)
 .debug_info    0x000032fa       0x32 C:/Program Files/Rowley Associates Limited/CrossWorks for ARM 2.0/lib/libm_v4t_a_le.a(__poly_eval.o)
 .debug_info    0x0000332c       0x32 C:/Program Files/Rowley Associates Limited/CrossWorks for ARM 2.0/lib/libm_v4t_a_le.a(frexp.o)
 .debug_info    0x0000335e       0x32 C:/Program Files/Rowley Associates Limited/CrossWorks for ARM 2.0/lib/libm_v4t_a_le.a(ldexp.o)
 .debug_info    0x00003390       0x30 C:/Program Files/Rowley Associates Limited/CrossWorks for ARM 2.0/lib/libc_v4t_a_le.a(memcmp.o)
 .debug_info    0x000033c0       0x30 C:/Program Files/Rowley Associates Limited/CrossWorks for ARM 2.0/lib/libc_v4t_a_le.a(strcat.o)
 .debug_info    0x000033f0       0x30 C:/Program Files/Rowley Associates Limited/CrossWorks for ARM 2.0/lib/libc_v4t_a_le.a(strchr.o)
 .debug_info    0x00003420       0x30 C:/Program Files/Rowley Associates Limited/CrossWorks for ARM 2.0/lib/libc_v4t_a_le.a(strncmp.o)
 .debug_info    0x00003450       0x32 C:/Program Files/Rowley Associates Limited/CrossWorks for ARM 2.0/lib/libc_v4t_a_le.a(strncpy.o)
 .debug_info    0x00003482       0x30 C:/Program Files/Rowley Associates Limited/CrossWorks for ARM 2.0/lib/libc_v4t_a_le.a(strrchr.o)
 .debug_info    0x000034b2       0x32 C:/Program Files/Rowley Associates Limited/CrossWorks for ARM 2.0/lib/libc_v4t_a_le.a(strstr.o)
 .debug_info    0x000034e4      0x11a C:/Program Files/Rowley Associates Limited/CrossWorks for ARM 2.0/lib/libc_v4t_a_le.a(ctype.o)
 .debug_info    0x000035fe       0x6e C:/Program Files/Rowley Associates Limited/CrossWorks for ARM 2.0/lib/libc_v4t_a_le.a(malloc.o)
 .debug_info    0x0000366c       0x32 C:/Program Files/Rowley Associates Limited/CrossWorks for ARM 2.0/lib/libc_v4t_a_le.a(atoi.o)
 .debug_info    0x0000369e       0xd2 C:/Program Files/Rowley Associates Limited/CrossWorks for ARM 2.0/lib/libc_v4t_a_le.a(time.o)
 .debug_info    0x00003770       0x57 C:/Program Files/Rowley Associates Limited/CrossWorks for ARM 2.0/lib/libc_v4t_a_le.a(asctime.o)
 .debug_info    0x000037c7       0xfb C:/Program Files/Rowley Associates Limited/CrossWorks for ARM 2.0/lib/libc_v4t_a_le.a(strftime.o)
 .debug_info    0x000038c2       0x32 C:/Program Files/Rowley Associates Limited/CrossWorks for ARM 2.0/lib/libc_v4t_a_le.a(div.o)
 .debug_info    0x000038f4       0x32 C:/Program Files/Rowley Associates Limited/CrossWorks for ARM 2.0/lib/libc_v4t_a_le.a(strtol.o)
 .debug_info    0x00003926       0x32 C:/Program Files/Rowley Associates Limited/CrossWorks for ARM 2.0/lib/libc_v4t_a_le.a(ldiv.o)
 .debug_info    0x00003958       0x32 C:/Program Files/Rowley Associates Limited/CrossWorks for ARM 2.0/lib/libc_v4t_a_le.a(__strtoul.o)
 .debug_info    0x0000398a       0x32 C:/Program Files/Rowley Associates Limited/CrossWorks for ARM 2.0/lib/libc_v4t_a_le.a(__digit.o)
 .debug_info    0x000039bc       0x32 C:/Program Files/Rowley Associates Limited/CrossWorks for ARM 2.0/lib/libdebugio_v4t_a_le.a(debug_printf.o)
 .debug_info    0x000039ee       0x32 C:/Program Files/Rowley Associates Limited/CrossWorks for ARM 2.0/lib/libc_targetio_impl_v4t_a_le.a(putchar.o)
 .debug_info    0x00003a20       0xc0 C:/Program Files/Rowley Associates Limited/CrossWorks for ARM 2.0/lib/libc_user_libc_v4t_a_le.a(user_libc.o)
 .debug_info    0x00003ae0       0x32 C:/Program Files/Rowley Associates Limited/CrossWorks for ARM 2.0/lib/libdebugio_dcc_v4t_a_le.a(dcc_debug_operations.o)
 .debug_info    0x00003b12       0x32 C:/Program Files/Rowley Associates Limited/CrossWorks for ARM 2.0/lib/libdebugio_dcc_v4t_a_le.a(libarm_run_dcc_port_server.o)

.debug_line     0x00000000     0x2ffc
 .debug_line    0x00000000       0x6f ARM Flash Release/main.o
 .debug_line    0x0000006f       0x77 ARM Flash Release/adc.o
 .debug_line    0x000000e6       0x77 ARM Flash Release/cpu.o
 .debug_line    0x0000015d       0x77 ARM Flash Release/i2c.o
 .debug_line    0x000001d4       0x7a ARM Flash Release/i2cInt.o
 .debug_line    0x0000024e       0x77 ARM Flash Release/pwm.o
 .debug_line    0x000002c5       0x77 ARM Flash Release/spi.o
 .debug_line    0x0000033c       0x7a ARM Flash Release/uart0.o
 .debug_line    0x000003b6       0x7d ARM Flash Release/uart0ISR.o
 .debug_line    0x00000433       0x7a ARM Flash Release/uart1.o
 .debug_line    0x000004ad       0x7d ARM Flash Release/uart1ISR.o
 .debug_line    0x0000052a       0x7e ARM Flash Release/usbcontrol.o
 .debug_line    0x000005a8       0x7b ARM Flash Release/usbinit.o
 .debug_line    0x00000623       0x7a ARM Flash Release/usbISR.o
 .debug_line    0x0000069d       0x7d ARM Flash Release/usbstdreq.o
 .debug_line    0x0000071a       0x7d ARM Flash Release/usbser.o
 .debug_line    0x00000797       0xcb ARM Flash Release/rtc.o
 .debug_line    0x00000862       0x7a ARM Flash Release/rtcISR.o
 .debug_line    0x000008dc       0x78 ARM Flash Release/reset.o
 .debug_line    0x00000954       0x7b ARM Flash Release/eint0.o
 .debug_line    0x000009cf       0x7e ARM Flash Release/eint0ISR.o
 .debug_line    0x00000a4d       0x7b ARM Flash Release/eint2.o
 .debug_line    0x00000ac8       0x7e ARM Flash Release/eint2ISR.o
 .debug_line    0x00000b46       0x7b ARM Flash Release/eint3.o
 .debug_line    0x00000bc1       0x7e ARM Flash Release/eint3ISR.o
 .debug_line    0x00000c3f       0x7b ARM Flash Release/eint1.o
 .debug_line    0x00000cba       0x7e ARM Flash Release/eint1ISR.o
 .debug_line    0x00000d38       0x7a ARM Flash Release/beep.o
 .debug_line    0x00000db2       0x7b ARM Flash Release/timer.o
 .debug_line    0x00000e2d        0x0 ARM Flash Release/freqCounter.o
 .debug_line    0x00000e2d       0x77 ARM Flash Release/dac.o
 .debug_line    0x00000ea4       0x77 ARM Flash Release/args.o
 .debug_line    0x00000f1b       0x7f ARM Flash Release/argsdispatch.o
 .debug_line    0x00000f9a       0x7a ARM Flash Release/monitor.o
 .debug_line    0x00001014       0x78 ARM Flash Release/printf-stdarg.o
 .debug_line    0x0000108c       0x7c ARM Flash Release/leds.o
 .debug_line    0x00001108       0x82 ARM Flash Release/tcs3414.o
 .debug_line    0x0000118a       0x79 ARM Flash Release/mmc.o
 .debug_line    0x00001203       0x79 ARM Flash Release/ssp.o
 .debug_line    0x0000127c       0x7f ARM Flash Release/Lcd204_4.o
 .debug_line    0x000012fb       0x72 ARM Flash Release/logging.o
 .debug_line    0x0000136d       0x72 ARM Flash Release/meas_sm.o
 .debug_line    0x000013df       0x74 ARM Flash Release/meas_task.o
 .debug_line    0x00001453       0xec ARM Flash Release/LPC210x.o
 .debug_line    0x0000153f       0xe8 ARM Flash Release/VIC.o
 .debug_line    0x00001627       0x9c ARM Flash Release/portISR.o
 .debug_line    0x000016c3       0x99 ARM Flash Release/port.o
 .debug_line    0x0000175c       0x92 ARM Flash Release/heap_2.o
 .debug_line    0x000017ee       0x80 ARM Flash Release/tasks.o
 .debug_line    0x0000186e       0x80 ARM Flash Release/queue.o
 .debug_line    0x000018ee       0x7f ARM Flash Release/list.o
 .debug_line    0x0000196d       0x7f ARM Flash Release/dhcpc.o
 .debug_line    0x000019ec       0x7d ARM Flash Release/sntp.o
 .debug_line    0x00001a69       0x83 ARM Flash Release/telnetd.o
 .debug_line    0x00001aec       0x83 ARM Flash Release/httpd.o
 .debug_line    0x00001b6f       0x87 ARM Flash Release/httpd-cgi.o
 .debug_line    0x00001bf6       0x86 ARM Flash Release/httpd-fs.o
 .debug_line    0x00001c7c        0x0 ARM Flash Release/http-strings.o
 .debug_line    0x00001c7c       0x80 ARM Flash Release/enc28j60.o
 .debug_line    0x00001cfc       0x77 ARM Flash Release/memb.o
 .debug_line    0x00001d73       0x78 ARM Flash Release/psock.o
 .debug_line    0x00001deb       0x76 ARM Flash Release/uip.o
 .debug_line    0x00001e61       0x7b ARM Flash Release/uip_arch.o
 .debug_line    0x00001edc       0x7a ARM Flash Release/uip_arp.o
 .debug_line    0x00001f56       0x7c ARM Flash Release/uip_timer.o
 .debug_line    0x00001fd2       0x79 ARM Flash Release/uip-fw.o
 .debug_line    0x0000204b       0x79 ARM Flash Release/uiplib.o
 .debug_line    0x000020c4       0x7f ARM Flash Release/uip-neighbor.o
 .debug_line    0x00002143       0x74 ARM Flash Release/clock.o
 .debug_line    0x000021b7       0x76 ARM Flash Release/uiptask.o
 .debug_line    0x0000222d       0x75 ARM Flash Release/disk.o
 .debug_line    0x000022a2       0x73 ARM Flash Release/ff.o
 .debug_line    0x00002315       0x75 C:/Program Files/Rowley Associates Limited/CrossWorks for ARM 2.0/lib/libm_v4t_a_le.a(log.o)
 .debug_line    0x0000238a        0x0 C:/Program Files/Rowley Associates Limited/CrossWorks for ARM 2.0/lib/libm_v4t_a_le.a(__float64_infinity.o)
 .debug_line    0x0000238a        0x0 C:/Program Files/Rowley Associates Limited/CrossWorks for ARM 2.0/lib/libm_v4t_a_le.a(__float64_nan.o)
 .debug_line    0x0000238a       0x7e C:/Program Files/Rowley Associates Limited/CrossWorks for ARM 2.0/lib/libm_v4t_a_le.a(__poly1_eval.o)
 .debug_line    0x00002408       0x7d C:/Program Files/Rowley Associates Limited/CrossWorks for ARM 2.0/lib/libm_v4t_a_le.a(__poly_eval.o)
 .debug_line    0x00002485       0x77 C:/Program Files/Rowley Associates Limited/CrossWorks for ARM 2.0/lib/libm_v4t_a_le.a(frexp.o)
 .debug_line    0x000024fc       0x77 C:/Program Files/Rowley Associates Limited/CrossWorks for ARM 2.0/lib/libm_v4t_a_le.a(ldexp.o)
 .debug_line    0x00002573       0x73 C:/Program Files/Rowley Associates Limited/CrossWorks for ARM 2.0/lib/libc_v4t_a_le.a(memcmp.o)
 .debug_line    0x000025e6       0x73 C:/Program Files/Rowley Associates Limited/CrossWorks for ARM 2.0/lib/libc_v4t_a_le.a(strcat.o)
 .debug_line    0x00002659       0x73 C:/Program Files/Rowley Associates Limited/CrossWorks for ARM 2.0/lib/libc_v4t_a_le.a(strchr.o)
 .debug_line    0x000026cc       0x74 C:/Program Files/Rowley Associates Limited/CrossWorks for ARM 2.0/lib/libc_v4t_a_le.a(strncmp.o)
 .debug_line    0x00002740       0x74 C:/Program Files/Rowley Associates Limited/CrossWorks for ARM 2.0/lib/libc_v4t_a_le.a(strncpy.o)
 .debug_line    0x000027b4       0x74 C:/Program Files/Rowley Associates Limited/CrossWorks for ARM 2.0/lib/libc_v4t_a_le.a(strrchr.o)
 .debug_line    0x00002828       0x73 C:/Program Files/Rowley Associates Limited/CrossWorks for ARM 2.0/lib/libc_v4t_a_le.a(strstr.o)
 .debug_line    0x0000289b       0x72 C:/Program Files/Rowley Associates Limited/CrossWorks for ARM 2.0/lib/libc_v4t_a_le.a(ctype.o)
 .debug_line    0x0000290d       0x73 C:/Program Files/Rowley Associates Limited/CrossWorks for ARM 2.0/lib/libc_v4t_a_le.a(malloc.o)
 .debug_line    0x00002980       0x71 C:/Program Files/Rowley Associates Limited/CrossWorks for ARM 2.0/lib/libc_v4t_a_le.a(atoi.o)
 .debug_line    0x000029f1       0x71 C:/Program Files/Rowley Associates Limited/CrossWorks for ARM 2.0/lib/libc_v4t_a_le.a(time.o)
 .debug_line    0x00002a62       0x74 C:/Program Files/Rowley Associates Limited/CrossWorks for ARM 2.0/lib/libc_v4t_a_le.a(asctime.o)
 .debug_line    0x00002ad6       0x75 C:/Program Files/Rowley Associates Limited/CrossWorks for ARM 2.0/lib/libc_v4t_a_le.a(strftime.o)
 .debug_line    0x00002b4b       0x70 C:/Program Files/Rowley Associates Limited/CrossWorks for ARM 2.0/lib/libc_v4t_a_le.a(div.o)
 .debug_line    0x00002bbb       0x73 C:/Program Files/Rowley Associates Limited/CrossWorks for ARM 2.0/lib/libc_v4t_a_le.a(strtol.o)
 .debug_line    0x00002c2e       0x71 C:/Program Files/Rowley Associates Limited/CrossWorks for ARM 2.0/lib/libc_v4t_a_le.a(ldiv.o)
 .debug_line    0x00002c9f       0x76 C:/Program Files/Rowley Associates Limited/CrossWorks for ARM 2.0/lib/libc_v4t_a_le.a(__strtoul.o)
 .debug_line    0x00002d15       0x74 C:/Program Files/Rowley Associates Limited/CrossWorks for ARM 2.0/lib/libc_v4t_a_le.a(__digit.o)
 .debug_line    0x00002d89       0x79 C:/Program Files/Rowley Associates Limited/CrossWorks for ARM 2.0/lib/libdebugio_v4t_a_le.a(debug_printf.o)
 .debug_line    0x00002e02       0x74 C:/Program Files/Rowley Associates Limited/CrossWorks for ARM 2.0/lib/libc_targetio_impl_v4t_a_le.a(putchar.o)
 .debug_line    0x00002e76       0x76 C:/Program Files/Rowley Associates Limited/CrossWorks for ARM 2.0/lib/libc_user_libc_v4t_a_le.a(user_libc.o)
 .debug_line    0x00002eec       0x85 C:/Program Files/Rowley Associates Limited/CrossWorks for ARM 2.0/lib/libdebugio_dcc_v4t_a_le.a(dcc_debug_operations.o)
 .debug_line    0x00002f71       0x8b C:/Program Files/Rowley Associates Limited/CrossWorks for ARM 2.0/lib/libdebugio_dcc_v4t_a_le.a(libarm_run_dcc_port_server.o)

.debug_frame    0x00000000     0x4f38
 .debug_frame   0x00000000       0x80 ARM Flash Release/main.o
 .debug_frame   0x00000080       0xd0 ARM Flash Release/adc.o
 .debug_frame   0x00000150       0x30 ARM Flash Release/cpu.o
 .debug_frame   0x00000180       0x30 ARM Flash Release/i2c.o
 .debug_frame   0x000001b0      0x194 ARM Flash Release/i2cInt.o
 .debug_frame   0x00000344       0x84 ARM Flash Release/pwm.o
 .debug_frame   0x000003c8       0x30 ARM Flash Release/spi.o
 .debug_frame   0x000003f8       0xb4 ARM Flash Release/uart0.o
 .debug_frame   0x000004ac       0x68 ARM Flash Release/uart0ISR.o
 .debug_frame   0x00000514       0xb4 ARM Flash Release/uart1.o
 .debug_frame   0x000005c8       0x68 ARM Flash Release/uart1ISR.o
 .debug_frame   0x00000630       0x98 ARM Flash Release/usbcontrol.o
 .debug_frame   0x000006c8       0x40 ARM Flash Release/usbinit.o
 .debug_frame   0x00000708      0x1f4 ARM Flash Release/usbISR.o
 .debug_frame   0x000008fc       0x7c ARM Flash Release/usbstdreq.o
 .debug_frame   0x00000978      0x150 ARM Flash Release/usbser.o
 .debug_frame   0x00000ac8      0x1b8 ARM Flash Release/rtc.o
 .debug_frame   0x00000c80       0x54 ARM Flash Release/rtcISR.o
 .debug_frame   0x00000cd4       0x20 ARM Flash Release/reset.o
 .debug_frame   0x00000cf4       0x3c ARM Flash Release/eint0.o
 .debug_frame   0x00000d30       0x20 ARM Flash Release/eint0ISR.o
 .debug_frame   0x00000d50       0x3c ARM Flash Release/eint2.o
 .debug_frame   0x00000d8c       0x30 ARM Flash Release/eint2ISR.o
 .debug_frame   0x00000dbc       0x3c ARM Flash Release/eint3.o
 .debug_frame   0x00000df8       0x2c ARM Flash Release/eint3ISR.o
 .debug_frame   0x00000e24       0x3c ARM Flash Release/eint1.o
 .debug_frame   0x00000e60       0x20 ARM Flash Release/eint1ISR.o
 .debug_frame   0x00000e80       0xc0 ARM Flash Release/beep.o
 .debug_frame   0x00000f40       0xbc ARM Flash Release/timer.o
 .debug_frame   0x00000ffc       0x54 ARM Flash Release/dac.o
 .debug_frame   0x00001050       0x80 ARM Flash Release/args.o
 .debug_frame   0x000010d0       0x38 ARM Flash Release/argsdispatch.o
 .debug_frame   0x00001108      0x4f4 ARM Flash Release/monitor.o
 .debug_frame   0x000015fc      0x178 ARM Flash Release/printf-stdarg.o
 .debug_frame   0x00001774       0x90 ARM Flash Release/leds.o
 .debug_frame   0x00001804       0xcc ARM Flash Release/tcs3414.o
 .debug_frame   0x000018d0      0x190 ARM Flash Release/mmc.o
 .debug_frame   0x00001a60       0xf0 ARM Flash Release/ssp.o
 .debug_frame   0x00001b50      0x1a8 ARM Flash Release/Lcd204_4.o
 .debug_frame   0x00001cf8      0x280 ARM Flash Release/logging.o
 .debug_frame   0x00001f78      0x24c ARM Flash Release/meas_sm.o
 .debug_frame   0x000021c4       0xc0 ARM Flash Release/meas_task.o
 .debug_frame   0x00002284       0x64 ARM Flash Release/LPC210x.o
 .debug_frame   0x000022e8       0x6c ARM Flash Release/VIC.o
 .debug_frame   0x00002354       0x60 ARM Flash Release/portISR.o
 .debug_frame   0x000023b4       0x50 ARM Flash Release/port.o
 .debug_frame   0x00002404       0x70 ARM Flash Release/heap_2.o
 .debug_frame   0x00002474      0x4c8 ARM Flash Release/tasks.o
 .debug_frame   0x0000293c      0x2e8 ARM Flash Release/queue.o
 .debug_frame   0x00002c24       0x60 ARM Flash Release/list.o
 .debug_frame   0x00002c84       0xe8 ARM Flash Release/dhcpc.o
 .debug_frame   0x00002d6c       0x58 ARM Flash Release/sntp.o
 .debug_frame   0x00002dc4      0x174 ARM Flash Release/telnetd.o
 .debug_frame   0x00002f38       0xd8 ARM Flash Release/httpd.o
 .debug_frame   0x00003010      0x158 ARM Flash Release/httpd-cgi.o
 .debug_frame   0x00003168       0x7c ARM Flash Release/httpd-fs.o
 .debug_frame   0x000031e4      0x218 ARM Flash Release/enc28j60.o
 .debug_frame   0x000033fc       0x6c ARM Flash Release/memb.o
 .debug_frame   0x00003468      0x118 ARM Flash Release/psock.o
 .debug_frame   0x00003580      0x170 ARM Flash Release/uip.o
 .debug_frame   0x000036f0       0xc4 ARM Flash Release/uip_arch.o
 .debug_frame   0x000037b4       0xf8 ARM Flash Release/uip_arp.o
 .debug_frame   0x000038ac       0x80 ARM Flash Release/uip_timer.o
 .debug_frame   0x0000392c       0x94 ARM Flash Release/uip-fw.o
 .debug_frame   0x000039c0       0x34 ARM Flash Release/uiplib.o
 .debug_frame   0x000039f4       0xb4 ARM Flash Release/uip-neighbor.o
 .debug_frame   0x00003aa8       0x2c ARM Flash Release/clock.o
 .debug_frame   0x00003ad4       0xf4 ARM Flash Release/uiptask.o
 .debug_frame   0x00003bc8       0xf4 ARM Flash Release/disk.o
 .debug_frame   0x00003cbc      0x548 ARM Flash Release/ff.o
 .debug_frame   0x00004204       0x20 C:/Program Files/Rowley Associates Limited/CrossWorks for ARM 2.0/lib/libm_v4t_a_le.a(__int32_to_float32.o)
 .debug_frame   0x00004224       0x20 C:/Program Files/Rowley Associates Limited/CrossWorks for ARM 2.0/lib/libm_v4t_a_le.a(__int32_to_float64.o)
 .debug_frame   0x00004244       0x20 C:/Program Files/Rowley Associates Limited/CrossWorks for ARM 2.0/lib/libm_v4t_a_le.a(__uint32_to_float32.o)
 .debug_frame   0x00004264       0x20 C:/Program Files/Rowley Associates Limited/CrossWorks for ARM 2.0/lib/libm_v4t_a_le.a(__uint32_to_float64.o)
 .debug_frame   0x00004284       0x20 C:/Program Files/Rowley Associates Limited/CrossWorks for ARM 2.0/lib/libm_v4t_a_le.a(__float32_to_int32.o)
 .debug_frame   0x000042a4       0x20 C:/Program Files/Rowley Associates Limited/CrossWorks for ARM 2.0/lib/libm_v4t_a_le.a(__float32_to_uint32.o)
 .debug_frame   0x000042c4       0x20 C:/Program Files/Rowley Associates Limited/CrossWorks for ARM 2.0/lib/libm_v4t_a_le.a(__float64_to_int32.o)
 .debug_frame   0x000042e4       0x20 C:/Program Files/Rowley Associates Limited/CrossWorks for ARM 2.0/lib/libm_v4t_a_le.a(__float32_to_float64.o)
 .debug_frame   0x00004304       0x20 C:/Program Files/Rowley Associates Limited/CrossWorks for ARM 2.0/lib/libm_v4t_a_le.a(__float32_add.o)
 .debug_frame   0x00004324       0x20 C:/Program Files/Rowley Associates Limited/CrossWorks for ARM 2.0/lib/libm_v4t_a_le.a(__float32_mul.o)
 .debug_frame   0x00004344       0x20 C:/Program Files/Rowley Associates Limited/CrossWorks for ARM 2.0/lib/libm_v4t_a_le.a(__float32_div.o)
 .debug_frame   0x00004364       0x20 C:/Program Files/Rowley Associates Limited/CrossWorks for ARM 2.0/lib/libm_v4t_a_le.a(__float32_cmp.o)
 .debug_frame   0x00004384       0x4c C:/Program Files/Rowley Associates Limited/CrossWorks for ARM 2.0/lib/libm_v4t_a_le.a(log.o)
 .debug_frame   0x000043d0       0x20 C:/Program Files/Rowley Associates Limited/CrossWorks for ARM 2.0/lib/libm_v4t_a_le.a(__float64_add.o)
 .debug_frame   0x000043f0       0x20 C:/Program Files/Rowley Associates Limited/CrossWorks for ARM 2.0/lib/libm_v4t_a_le.a(__float64_mul.o)
 .debug_frame   0x00004410       0x20 C:/Program Files/Rowley Associates Limited/CrossWorks for ARM 2.0/lib/libm_v4t_a_le.a(__float64_div.o)
 .debug_frame   0x00004430       0x20 C:/Program Files/Rowley Associates Limited/CrossWorks for ARM 2.0/lib/libm_v4t_a_le.a(__float64_cmp.o)
 .debug_frame   0x00004450       0x20 C:/Program Files/Rowley Associates Limited/CrossWorks for ARM 2.0/lib/libm_v4t_a_le.a(__float64_isnan.o)
 .debug_frame   0x00004470       0x3c C:/Program Files/Rowley Associates Limited/CrossWorks for ARM 2.0/lib/libm_v4t_a_le.a(__poly1_eval.o)
 .debug_frame   0x000044ac       0x38 C:/Program Files/Rowley Associates Limited/CrossWorks for ARM 2.0/lib/libm_v4t_a_le.a(__poly_eval.o)
 .debug_frame   0x000044e4       0x34 C:/Program Files/Rowley Associates Limited/CrossWorks for ARM 2.0/lib/libm_v4t_a_le.a(frexp.o)
 .debug_frame   0x00004518       0x34 C:/Program Files/Rowley Associates Limited/CrossWorks for ARM 2.0/lib/libm_v4t_a_le.a(ldexp.o)
 .debug_frame   0x0000454c       0x20 C:/Program Files/Rowley Associates Limited/CrossWorks for ARM 2.0/lib/libc_v4t_a_le.a(__int32_umod.o)
 .debug_frame   0x0000456c       0x20 C:/Program Files/Rowley Associates Limited/CrossWorks for ARM 2.0/lib/libc_v4t_a_le.a(__int32_div.o)
 .debug_frame   0x0000458c       0x20 C:/Program Files/Rowley Associates Limited/CrossWorks for ARM 2.0/lib/libc_v4t_a_le.a(__int32_udivmod.o)
 .debug_frame   0x000045ac       0x20 C:/Program Files/Rowley Associates Limited/CrossWorks for ARM 2.0/lib/libc_v4t_a_le.a(strlen.o)
 .debug_frame   0x000045cc       0x20 C:/Program Files/Rowley Associates Limited/CrossWorks for ARM 2.0/lib/libc_v4t_a_le.a(memcpy.o)
 .debug_frame   0x000045ec       0x20 C:/Program Files/Rowley Associates Limited/CrossWorks for ARM 2.0/lib/libc_v4t_a_le.a(memset.o)
 .debug_frame   0x0000460c       0x20 C:/Program Files/Rowley Associates Limited/CrossWorks for ARM 2.0/lib/libc_v4t_a_le.a(strcpy.o)
 .debug_frame   0x0000462c       0x20 C:/Program Files/Rowley Associates Limited/CrossWorks for ARM 2.0/lib/libc_v4t_a_le.a(strcmp.o)
 .debug_frame   0x0000464c       0x20 C:/Program Files/Rowley Associates Limited/CrossWorks for ARM 2.0/lib/libc_v4t_a_le.a(memcmp.o)
 .debug_frame   0x0000466c       0x20 C:/Program Files/Rowley Associates Limited/CrossWorks for ARM 2.0/lib/libc_v4t_a_le.a(strcat.o)
 .debug_frame   0x0000468c       0x20 C:/Program Files/Rowley Associates Limited/CrossWorks for ARM 2.0/lib/libc_v4t_a_le.a(strchr.o)
 .debug_frame   0x000046ac       0x20 C:/Program Files/Rowley Associates Limited/CrossWorks for ARM 2.0/lib/libc_v4t_a_le.a(strncmp.o)
 .debug_frame   0x000046cc       0x2c C:/Program Files/Rowley Associates Limited/CrossWorks for ARM 2.0/lib/libc_v4t_a_le.a(strncpy.o)
 .debug_frame   0x000046f8       0x20 C:/Program Files/Rowley Associates Limited/CrossWorks for ARM 2.0/lib/libc_v4t_a_le.a(strrchr.o)
 .debug_frame   0x00004718       0x30 C:/Program Files/Rowley Associates Limited/CrossWorks for ARM 2.0/lib/libc_v4t_a_le.a(strstr.o)
 .debug_frame   0x00004748       0xf0 C:/Program Files/Rowley Associates Limited/CrossWorks for ARM 2.0/lib/libc_v4t_a_le.a(ctype.o)
 .debug_frame   0x00004838       0x94 C:/Program Files/Rowley Associates Limited/CrossWorks for ARM 2.0/lib/libc_v4t_a_le.a(malloc.o)
 .debug_frame   0x000048cc       0x30 C:/Program Files/Rowley Associates Limited/CrossWorks for ARM 2.0/lib/libc_v4t_a_le.a(atoi.o)
 .debug_frame   0x000048fc      0x158 C:/Program Files/Rowley Associates Limited/CrossWorks for ARM 2.0/lib/libc_v4t_a_le.a(time.o)
 .debug_frame   0x00004a54       0x64 C:/Program Files/Rowley Associates Limited/CrossWorks for ARM 2.0/lib/libc_v4t_a_le.a(asctime.o)
 .debug_frame   0x00004ab8      0x160 C:/Program Files/Rowley Associates Limited/CrossWorks for ARM 2.0/lib/libc_v4t_a_le.a(strftime.o)
 .debug_frame   0x00004c18       0x38 C:/Program Files/Rowley Associates Limited/CrossWorks for ARM 2.0/lib/libc_v4t_a_le.a(div.o)
 .debug_frame   0x00004c50       0x48 C:/Program Files/Rowley Associates Limited/CrossWorks for ARM 2.0/lib/libc_v4t_a_le.a(strtol.o)
 .debug_frame   0x00004c98       0x38 C:/Program Files/Rowley Associates Limited/CrossWorks for ARM 2.0/lib/libc_v4t_a_le.a(ldiv.o)
 .debug_frame   0x00004cd0       0x20 C:/Program Files/Rowley Associates Limited/CrossWorks for ARM 2.0/lib/libc_v4t_a_le.a(__int32_mod.o)
 .debug_frame   0x00004cf0       0x4c C:/Program Files/Rowley Associates Limited/CrossWorks for ARM 2.0/lib/libc_v4t_a_le.a(__strtoul.o)
 .debug_frame   0x00004d3c       0x30 C:/Program Files/Rowley Associates Limited/CrossWorks for ARM 2.0/lib/libc_v4t_a_le.a(__digit.o)
 .debug_frame   0x00004d6c       0x40 C:/Program Files/Rowley Associates Limited/CrossWorks for ARM 2.0/lib/libdebugio_v4t_a_le.a(debug_printf.o)
 .debug_frame   0x00004dac       0x30 C:/Program Files/Rowley Associates Limited/CrossWorks for ARM 2.0/lib/libc_targetio_impl_v4t_a_le.a(putchar.o)
 .debug_frame   0x00004ddc       0xa0 C:/Program Files/Rowley Associates Limited/CrossWorks for ARM 2.0/lib/libc_user_libc_v4t_a_le.a(user_libc.o)
 .debug_frame   0x00004e7c       0x38 C:/Program Files/Rowley Associates Limited/CrossWorks for ARM 2.0/lib/libdebugio_dcc_v4t_a_le.a(dcc_debug_operations.o)
 .debug_frame   0x00004eb4       0x20 C:/Program Files/Rowley Associates Limited/CrossWorks for ARM 2.0/lib/libdebugio_dcc_v4t_a_le.a(libarmdi_dcc_write.o)
 .debug_frame   0x00004ed4       0x44 C:/Program Files/Rowley Associates Limited/CrossWorks for ARM 2.0/lib/libdebugio_dcc_v4t_a_le.a(libarm_run_dcc_port_server.o)
 .debug_frame   0x00004f18       0x20 C:/Program Files/Rowley Associates Limited/CrossWorks for ARM 2.0/lib/libdebugio_dcc_v4t_a_le.a(libarmdi_dcc_read.o)

.debug_loc      0x00000000     0x3663
 .debug_loc     0x00000000       0x69 ARM Flash Release/main.o
 .debug_loc     0x00000069      0x153 ARM Flash Release/i2cInt.o
 .debug_loc     0x000001bc       0x5d ARM Flash Release/pwm.o
 .debug_loc     0x00000219       0x88 ARM Flash Release/uart0.o
 .debug_loc     0x000002a1       0x56 ARM Flash Release/uart0ISR.o
 .debug_loc     0x000002f7       0x88 ARM Flash Release/uart1.o
 .debug_loc     0x0000037f       0x56 ARM Flash Release/uart1ISR.o
 .debug_loc     0x000003d5       0x7c ARM Flash Release/usbcontrol.o
 .debug_loc     0x00000451       0x1f ARM Flash Release/usbinit.o
 .debug_loc     0x00000470      0x193 ARM Flash Release/usbISR.o
 .debug_loc     0x00000603       0x3e ARM Flash Release/usbstdreq.o
 .debug_loc     0x00000641      0x11c ARM Flash Release/usbser.o
 .debug_loc     0x0000075d      0x18a ARM Flash Release/rtc.o
 .debug_loc     0x000008e7       0x2b ARM Flash Release/rtcISR.o
 .debug_loc     0x00000912       0x1f ARM Flash Release/eint0.o
 .debug_loc     0x00000931       0x1f ARM Flash Release/eint2.o
 .debug_loc     0x00000950       0x1f ARM Flash Release/eint3.o
 .debug_loc     0x0000096f       0x1f ARM Flash Release/eint3ISR.o
 .debug_loc     0x0000098e       0x1f ARM Flash Release/eint1.o
 .debug_loc     0x000009ad       0x9b ARM Flash Release/beep.o
 .debug_loc     0x00000a48       0x3e ARM Flash Release/timer.o
 .debug_loc     0x00000a86       0x1f ARM Flash Release/dac.o
 .debug_loc     0x00000aa5       0x4a ARM Flash Release/args.o
 .debug_loc     0x00000aef       0x1f ARM Flash Release/argsdispatch.o
 .debug_loc     0x00000b0e      0x4aa ARM Flash Release/monitor.o
 .debug_loc     0x00000fb8      0x139 ARM Flash Release/printf-stdarg.o
 .debug_loc     0x000010f1       0x69 ARM Flash Release/leds.o
 .debug_loc     0x0000115a       0xcb ARM Flash Release/tcs3414.o
 .debug_loc     0x00001225      0x136 ARM Flash Release/mmc.o
 .debug_loc     0x0000135b       0xa7 ARM Flash Release/ssp.o
 .debug_loc     0x00001402      0x161 ARM Flash Release/Lcd204_4.o
 .debug_loc     0x00001563      0x21a ARM Flash Release/logging.o
 .debug_loc     0x0000177d      0x18c ARM Flash Release/meas_sm.o
 .debug_loc     0x00001909       0xa7 ARM Flash Release/meas_task.o
 .debug_loc     0x000019b0       0x4a ARM Flash Release/LPC210x.o
 .debug_loc     0x000019fa       0x3e ARM Flash Release/VIC.o
 .debug_loc     0x00001a38       0x1f ARM Flash Release/port.o
 .debug_loc     0x00001a57       0x3e ARM Flash Release/heap_2.o
 .debug_loc     0x00001a95      0x3f1 ARM Flash Release/tasks.o
 .debug_loc     0x00001e86      0x23f ARM Flash Release/queue.o
 .debug_loc     0x000020c5       0x88 ARM Flash Release/dhcpc.o
 .debug_loc     0x0000214d       0x4a ARM Flash Release/sntp.o
 .debug_loc     0x00002197      0x134 ARM Flash Release/telnetd.o
 .debug_loc     0x000022cb       0xba ARM Flash Release/httpd.o
 .debug_loc     0x00002385      0x124 ARM Flash Release/httpd-cgi.o
 .debug_loc     0x000024a9       0x3e ARM Flash Release/httpd-fs.o
 .debug_loc     0x000024e7      0x1dd ARM Flash Release/enc28j60.o
 .debug_loc     0x000026c4       0x5d ARM Flash Release/memb.o
 .debug_loc     0x00002721       0xba ARM Flash Release/psock.o
 .debug_loc     0x000027db       0xc6 ARM Flash Release/uip.o
 .debug_loc     0x000028a1       0xba ARM Flash Release/uip_arch.o
 .debug_loc     0x0000295b       0xba ARM Flash Release/uip_arp.o
 .debug_loc     0x00002a15       0x5d ARM Flash Release/uip_timer.o
 .debug_loc     0x00002a72       0x3e ARM Flash Release/uip-fw.o
 .debug_loc     0x00002ab0       0x1f ARM Flash Release/uiplib.o
 .debug_loc     0x00002acf       0x88 ARM Flash Release/uip-neighbor.o
 .debug_loc     0x00002b57       0x1f ARM Flash Release/clock.o
 .debug_loc     0x00002b76       0xa0 ARM Flash Release/uiptask.o
 .debug_loc     0x00002c16       0xc6 ARM Flash Release/disk.o
 .debug_loc     0x00002cdc      0x437 ARM Flash Release/ff.o
 .debug_loc     0x00003113       0x2b C:/Program Files/Rowley Associates Limited/CrossWorks for ARM 2.0/lib/libm_v4t_a_le.a(log.o)
 .debug_loc     0x0000313e       0x1f C:/Program Files/Rowley Associates Limited/CrossWorks for ARM 2.0/lib/libm_v4t_a_le.a(__poly1_eval.o)
 .debug_loc     0x0000315d       0x1f C:/Program Files/Rowley Associates Limited/CrossWorks for ARM 2.0/lib/libm_v4t_a_le.a(__poly_eval.o)
 .debug_loc     0x0000317c       0x1f C:/Program Files/Rowley Associates Limited/CrossWorks for ARM 2.0/lib/libm_v4t_a_le.a(frexp.o)
 .debug_loc     0x0000319b       0x1f C:/Program Files/Rowley Associates Limited/CrossWorks for ARM 2.0/lib/libm_v4t_a_le.a(ldexp.o)
 .debug_loc     0x000031ba       0x1f C:/Program Files/Rowley Associates Limited/CrossWorks for ARM 2.0/lib/libc_v4t_a_le.a(strncpy.o)
 .debug_loc     0x000031d9       0x1f C:/Program Files/Rowley Associates Limited/CrossWorks for ARM 2.0/lib/libc_v4t_a_le.a(strstr.o)
 .debug_loc     0x000031f8       0x7c C:/Program Files/Rowley Associates Limited/CrossWorks for ARM 2.0/lib/libc_v4t_a_le.a(malloc.o)
 .debug_loc     0x00003274       0x1f C:/Program Files/Rowley Associates Limited/CrossWorks for ARM 2.0/lib/libc_v4t_a_le.a(atoi.o)
 .debug_loc     0x00003293      0x13b C:/Program Files/Rowley Associates Limited/CrossWorks for ARM 2.0/lib/libc_v4t_a_le.a(time.o)
 .debug_loc     0x000033ce       0x3e C:/Program Files/Rowley Associates Limited/CrossWorks for ARM 2.0/lib/libc_v4t_a_le.a(asctime.o)
 .debug_loc     0x0000340c      0x110 C:/Program Files/Rowley Associates Limited/CrossWorks for ARM 2.0/lib/libc_v4t_a_le.a(strftime.o)
 .debug_loc     0x0000351c       0x1f C:/Program Files/Rowley Associates Limited/CrossWorks for ARM 2.0/lib/libc_v4t_a_le.a(div.o)
 .debug_loc     0x0000353b       0x2b C:/Program Files/Rowley Associates Limited/CrossWorks for ARM 2.0/lib/libc_v4t_a_le.a(strtol.o)
 .debug_loc     0x00003566       0x1f C:/Program Files/Rowley Associates Limited/CrossWorks for ARM 2.0/lib/libc_v4t_a_le.a(ldiv.o)
 .debug_loc     0x00003585       0x2b C:/Program Files/Rowley Associates Limited/CrossWorks for ARM 2.0/lib/libc_v4t_a_le.a(__strtoul.o)
 .debug_loc     0x000035b0       0x1f C:/Program Files/Rowley Associates Limited/CrossWorks for ARM 2.0/lib/libc_v4t_a_le.a(__digit.o)
 .debug_loc     0x000035cf       0x2b C:/Program Files/Rowley Associates Limited/CrossWorks for ARM 2.0/lib/libdebugio_v4t_a_le.a(debug_printf.o)
 .debug_loc     0x000035fa       0x1f C:/Program Files/Rowley Associates Limited/CrossWorks for ARM 2.0/lib/libc_targetio_impl_v4t_a_le.a(putchar.o)
 .debug_loc     0x00003619       0x2b C:/Program Files/Rowley Associates Limited/CrossWorks for ARM 2.0/lib/libdebugio_dcc_v4t_a_le.a(dcc_debug_operations.o)
 .debug_loc     0x00003644       0x1f C:/Program Files/Rowley Associates Limited/CrossWorks for ARM 2.0/lib/libdebugio_dcc_v4t_a_le.a(libarm_run_dcc_port_server.o)

.debug_pubnames
                0x00000000     0x273e
 .debug_pubnames
                0x00000000       0x4b ARM Flash Release/main.o
 .debug_pubnames
                0x0000004b       0xc6 ARM Flash Release/adc.o
 .debug_pubnames
                0x00000111       0x39 ARM Flash Release/cpu.o
 .debug_pubnames
                0x0000014a       0x32 ARM Flash Release/i2c.o
 .debug_pubnames
                0x0000017c       0xaa ARM Flash Release/i2cInt.o
 .debug_pubnames
                0x00000226       0x60 ARM Flash Release/pwm.o
 .debug_pubnames
                0x00000286       0x29 ARM Flash Release/spi.o
 .debug_pubnames
                0x000002af       0x79 ARM Flash Release/uart0.o
 .debug_pubnames
                0x00000328       0x38 ARM Flash Release/uart0ISR.o
 .debug_pubnames
                0x00000360       0x79 ARM Flash Release/uart1.o
 .debug_pubnames
                0x000003d9       0x38 ARM Flash Release/uart1ISR.o
 .debug_pubnames
                0x00000411       0x4d ARM Flash Release/usbcontrol.o
 .debug_pubnames
                0x0000045e       0x2a ARM Flash Release/usbinit.o
 .debug_pubnames
                0x00000488      0x1b9 ARM Flash Release/usbISR.o
 .debug_pubnames
                0x00000641       0x7f ARM Flash Release/usbstdreq.o
 .debug_pubnames
                0x000006c0       0x6e ARM Flash Release/usbser.o
 .debug_pubnames
                0x0000072e      0x109 ARM Flash Release/rtc.o
 .debug_pubnames
                0x00000837       0x2c ARM Flash Release/rtcISR.o
 .debug_pubnames
                0x00000863       0x1c ARM Flash Release/reset.o
 .debug_pubnames
                0x0000087f       0x30 ARM Flash Release/eint0.o
 .debug_pubnames
                0x000008af       0x1f ARM Flash Release/eint0ISR.o
 .debug_pubnames
                0x000008ce       0x30 ARM Flash Release/eint2.o
 .debug_pubnames
                0x000008fe       0x1f ARM Flash Release/eint2ISR.o
 .debug_pubnames
                0x0000091d       0x30 ARM Flash Release/eint3.o
 .debug_pubnames
                0x0000094d       0x1f ARM Flash Release/eint3ISR.o
 .debug_pubnames
                0x0000096c       0x30 ARM Flash Release/eint1.o
 .debug_pubnames
                0x0000099c       0x1f ARM Flash Release/eint1ISR.o
 .debug_pubnames
                0x000009bb       0x5a ARM Flash Release/beep.o
 .debug_pubnames
                0x00000a15       0xc6 ARM Flash Release/timer.o
 .debug_pubnames
                0x00000adb       0x36 ARM Flash Release/dac.o
 .debug_pubnames
                0x00000b11       0x30 ARM Flash Release/args.o
 .debug_pubnames
                0x00000b41       0x23 ARM Flash Release/argsdispatch.o
 .debug_pubnames
                0x00000b64       0x37 ARM Flash Release/monitor.o
 .debug_pubnames
                0x00000b9b       0x40 ARM Flash Release/printf-stdarg.o
 .debug_pubnames
                0x00000bdb       0x57 ARM Flash Release/leds.o
 .debug_pubnames
                0x00000c32       0x65 ARM Flash Release/tcs3414.o
 .debug_pubnames
                0x00000c97       0xb6 ARM Flash Release/mmc.o
 .debug_pubnames
                0x00000d4d       0xd7 ARM Flash Release/ssp.o
 .debug_pubnames
                0x00000e24       0xc7 ARM Flash Release/Lcd204_4.o
 .debug_pubnames
                0x00000eeb      0x14c ARM Flash Release/logging.o
 .debug_pubnames
                0x00001037      0x1f2 ARM Flash Release/meas_sm.o
 .debug_pubnames
                0x00001229       0x6d ARM Flash Release/meas_task.o
 .debug_pubnames
                0x00001296       0x43 ARM Flash Release/LPC210x.o
 .debug_pubnames
                0x000012d9       0x46 ARM Flash Release/VIC.o
 .debug_pubnames
                0x0000131f       0x77 ARM Flash Release/portISR.o
 .debug_pubnames
                0x00001396       0x5a ARM Flash Release/port.o
 .debug_pubnames
                0x000013f0       0x64 ARM Flash Release/heap_2.o
 .debug_pubnames
                0x00001454      0x389 ARM Flash Release/tasks.o
 .debug_pubnames
                0x000017dd      0x1ae ARM Flash Release/queue.o
 .debug_pubnames
                0x0000198b       0x71 ARM Flash Release/list.o
 .debug_pubnames
                0x000019fc       0x45 ARM Flash Release/dhcpc.o
 .debug_pubnames
                0x00001a41       0x30 ARM Flash Release/sntp.o
 .debug_pubnames
                0x00001a71       0x60 ARM Flash Release/telnetd.o
 .debug_pubnames
                0x00001ad1       0x33 ARM Flash Release/httpd.o
 .debug_pubnames
                0x00001b04       0x20 ARM Flash Release/httpd-cgi.o
 .debug_pubnames
                0x00001b24       0x49 ARM Flash Release/httpd-fs.o
 .debug_pubnames
                0x00001b6d       0x73 ARM Flash Release/enc28j60.o
 .debug_pubnames
                0x00001be0       0x3d ARM Flash Release/memb.o
 .debug_pubnames
                0x00001c1d       0x90 ARM Flash Release/psock.o
 .debug_pubnames
                0x00001cad       0xc6 ARM Flash Release/uip.o
 .debug_pubnames
                0x00001d73       0x64 ARM Flash Release/uip_arch.o
 .debug_pubnames
                0x00001dd7       0x68 ARM Flash Release/uip_arp.o
 .debug_pubnames
                0x00001e3f       0x54 ARM Flash Release/uip_timer.o
 .debug_pubnames
                0x00001e93       0x82 ARM Flash Release/uip-fw.o
 .debug_pubnames
                0x00001f15       0x28 ARM Flash Release/uiplib.o
 .debug_pubnames
                0x00001f3d       0x87 ARM Flash Release/uip-neighbor.o
 .debug_pubnames
                0x00001fc4       0x21 ARM Flash Release/clock.o
 .debug_pubnames
                0x00001fe5       0x93 ARM Flash Release/uiptask.o
 .debug_pubnames
                0x00002078       0xa7 ARM Flash Release/disk.o
 .debug_pubnames
                0x0000211f       0xf9 ARM Flash Release/ff.o
 .debug_pubnames
                0x00002218       0x1a C:/Program Files/Rowley Associates Limited/CrossWorks for ARM 2.0/lib/libm_v4t_a_le.a(log.o)
 .debug_pubnames
                0x00002232       0x23 C:/Program Files/Rowley Associates Limited/CrossWorks for ARM 2.0/lib/libm_v4t_a_le.a(__poly1_eval.o)
 .debug_pubnames
                0x00002255       0x22 C:/Program Files/Rowley Associates Limited/CrossWorks for ARM 2.0/lib/libm_v4t_a_le.a(__poly_eval.o)
 .debug_pubnames
                0x00002277       0x1c C:/Program Files/Rowley Associates Limited/CrossWorks for ARM 2.0/lib/libm_v4t_a_le.a(frexp.o)
 .debug_pubnames
                0x00002293       0x1c C:/Program Files/Rowley Associates Limited/CrossWorks for ARM 2.0/lib/libm_v4t_a_le.a(ldexp.o)
 .debug_pubnames
                0x000022af       0x1d C:/Program Files/Rowley Associates Limited/CrossWorks for ARM 2.0/lib/libc_v4t_a_le.a(memcmp.o)
 .debug_pubnames
                0x000022cc       0x1d C:/Program Files/Rowley Associates Limited/CrossWorks for ARM 2.0/lib/libc_v4t_a_le.a(strcat.o)
 .debug_pubnames
                0x000022e9       0x1d C:/Program Files/Rowley Associates Limited/CrossWorks for ARM 2.0/lib/libc_v4t_a_le.a(strchr.o)
 .debug_pubnames
                0x00002306       0x1e C:/Program Files/Rowley Associates Limited/CrossWorks for ARM 2.0/lib/libc_v4t_a_le.a(strncmp.o)
 .debug_pubnames
                0x00002324       0x1e C:/Program Files/Rowley Associates Limited/CrossWorks for ARM 2.0/lib/libc_v4t_a_le.a(strncpy.o)
 .debug_pubnames
                0x00002342       0x1e C:/Program Files/Rowley Associates Limited/CrossWorks for ARM 2.0/lib/libc_v4t_a_le.a(strrchr.o)
 .debug_pubnames
                0x00002360       0x1d C:/Program Files/Rowley Associates Limited/CrossWorks for ARM 2.0/lib/libc_v4t_a_le.a(strstr.o)
 .debug_pubnames
                0x0000237d       0xbb C:/Program Files/Rowley Associates Limited/CrossWorks for ARM 2.0/lib/libc_v4t_a_le.a(ctype.o)
 .debug_pubnames
                0x00002438       0x3d C:/Program Files/Rowley Associates Limited/CrossWorks for ARM 2.0/lib/libc_v4t_a_le.a(malloc.o)
 .debug_pubnames
                0x00002475       0x1b C:/Program Files/Rowley Associates Limited/CrossWorks for ARM 2.0/lib/libc_v4t_a_le.a(atoi.o)
 .debug_pubnames
                0x00002490       0x82 C:/Program Files/Rowley Associates Limited/CrossWorks for ARM 2.0/lib/libc_v4t_a_le.a(time.o)
 .debug_pubnames
                0x00002512       0x2c C:/Program Files/Rowley Associates Limited/CrossWorks for ARM 2.0/lib/libc_v4t_a_le.a(asctime.o)
 .debug_pubnames
                0x0000253e       0x1f C:/Program Files/Rowley Associates Limited/CrossWorks for ARM 2.0/lib/libc_v4t_a_le.a(strftime.o)
 .debug_pubnames
                0x0000255d       0x1a C:/Program Files/Rowley Associates Limited/CrossWorks for ARM 2.0/lib/libc_v4t_a_le.a(div.o)
 .debug_pubnames
                0x00002577       0x1d C:/Program Files/Rowley Associates Limited/CrossWorks for ARM 2.0/lib/libc_v4t_a_le.a(strtol.o)
 .debug_pubnames
                0x00002594       0x1b C:/Program Files/Rowley Associates Limited/CrossWorks for ARM 2.0/lib/libc_v4t_a_le.a(ldiv.o)
 .debug_pubnames
                0x000025af       0x20 C:/Program Files/Rowley Associates Limited/CrossWorks for ARM 2.0/lib/libc_v4t_a_le.a(__strtoul.o)
 .debug_pubnames
                0x000025cf       0x1e C:/Program Files/Rowley Associates Limited/CrossWorks for ARM 2.0/lib/libc_v4t_a_le.a(__digit.o)
 .debug_pubnames
                0x000025ed       0x23 C:/Program Files/Rowley Associates Limited/CrossWorks for ARM 2.0/lib/libdebugio_v4t_a_le.a(debug_printf.o)
 .debug_pubnames
                0x00002610       0x1e C:/Program Files/Rowley Associates Limited/CrossWorks for ARM 2.0/lib/libc_targetio_impl_v4t_a_le.a(putchar.o)
 .debug_pubnames
                0x0000262e       0xb4 C:/Program Files/Rowley Associates Limited/CrossWorks for ARM 2.0/lib/libc_user_libc_v4t_a_le.a(user_libc.o)
 .debug_pubnames
                0x000026e2       0x2b C:/Program Files/Rowley Associates Limited/CrossWorks for ARM 2.0/lib/libdebugio_dcc_v4t_a_le.a(dcc_debug_operations.o)
 .debug_pubnames
                0x0000270d       0x31 C:/Program Files/Rowley Associates Limited/CrossWorks for ARM 2.0/lib/libdebugio_dcc_v4t_a_le.a(libarm_run_dcc_port_server.o)

.debug_aranges  0x00000000      0xc40
 .debug_aranges
                0x00000000       0x20 ARM Flash Release/main.o
 .debug_aranges
                0x00000020       0x20 ARM Flash Release/adc.o
 .debug_aranges
                0x00000040       0x20 ARM Flash Release/cpu.o
 .debug_aranges
                0x00000060       0x20 ARM Flash Release/i2c.o
 .debug_aranges
                0x00000080       0x20 ARM Flash Release/i2cInt.o
 .debug_aranges
                0x000000a0       0x20 ARM Flash Release/pwm.o
 .debug_aranges
                0x000000c0       0x20 ARM Flash Release/spi.o
 .debug_aranges
                0x000000e0       0x20 ARM Flash Release/uart0.o
 .debug_aranges
                0x00000100       0x20 ARM Flash Release/uart0ISR.o
 .debug_aranges
                0x00000120       0x20 ARM Flash Release/uart1.o
 .debug_aranges
                0x00000140       0x20 ARM Flash Release/uart1ISR.o
 .debug_aranges
                0x00000160       0x20 ARM Flash Release/usbcontrol.o
 .debug_aranges
                0x00000180       0x20 ARM Flash Release/usbinit.o
 .debug_aranges
                0x000001a0       0x20 ARM Flash Release/usbISR.o
 .debug_aranges
                0x000001c0       0x20 ARM Flash Release/usbstdreq.o
 .debug_aranges
                0x000001e0       0x20 ARM Flash Release/usbser.o
 .debug_aranges
                0x00000200       0x20 ARM Flash Release/rtc.o
 .debug_aranges
                0x00000220       0x20 ARM Flash Release/rtcISR.o
 .debug_aranges
                0x00000240       0x20 ARM Flash Release/reset.o
 .debug_aranges
                0x00000260       0x20 ARM Flash Release/eint0.o
 .debug_aranges
                0x00000280       0x20 ARM Flash Release/eint0ISR.o
 .debug_aranges
                0x000002a0       0x20 ARM Flash Release/eint2.o
 .debug_aranges
                0x000002c0       0x20 ARM Flash Release/eint2ISR.o
 .debug_aranges
                0x000002e0       0x20 ARM Flash Release/eint3.o
 .debug_aranges
                0x00000300       0x20 ARM Flash Release/eint3ISR.o
 .debug_aranges
                0x00000320       0x20 ARM Flash Release/eint1.o
 .debug_aranges
                0x00000340       0x20 ARM Flash Release/eint1ISR.o
 .debug_aranges
                0x00000360       0x20 ARM Flash Release/beep.o
 .debug_aranges
                0x00000380       0x20 ARM Flash Release/timer.o
 .debug_aranges
                0x000003a0       0x20 ARM Flash Release/dac.o
 .debug_aranges
                0x000003c0       0x20 ARM Flash Release/args.o
 .debug_aranges
                0x000003e0       0x20 ARM Flash Release/argsdispatch.o
 .debug_aranges
                0x00000400       0x20 ARM Flash Release/monitor.o
 .debug_aranges
                0x00000420       0x20 ARM Flash Release/printf-stdarg.o
 .debug_aranges
                0x00000440       0x20 ARM Flash Release/leds.o
 .debug_aranges
                0x00000460       0x20 ARM Flash Release/tcs3414.o
 .debug_aranges
                0x00000480       0x20 ARM Flash Release/mmc.o
 .debug_aranges
                0x000004a0       0x20 ARM Flash Release/ssp.o
 .debug_aranges
                0x000004c0       0x20 ARM Flash Release/Lcd204_4.o
 .debug_aranges
                0x000004e0       0x20 ARM Flash Release/logging.o
 .debug_aranges
                0x00000500       0x20 ARM Flash Release/meas_sm.o
 .debug_aranges
                0x00000520       0x20 ARM Flash Release/meas_task.o
 .debug_aranges
                0x00000540       0x20 ARM Flash Release/LPC210x.o
 .debug_aranges
                0x00000560       0x20 ARM Flash Release/VIC.o
 .debug_aranges
                0x00000580       0x20 ARM Flash Release/portISR.o
 .debug_aranges
                0x000005a0       0x20 ARM Flash Release/port.o
 .debug_aranges
                0x000005c0       0x20 ARM Flash Release/heap_2.o
 .debug_aranges
                0x000005e0       0x20 ARM Flash Release/tasks.o
 .debug_aranges
                0x00000600       0x20 ARM Flash Release/queue.o
 .debug_aranges
                0x00000620       0x20 ARM Flash Release/list.o
 .debug_aranges
                0x00000640       0x20 ARM Flash Release/dhcpc.o
 .debug_aranges
                0x00000660       0x20 ARM Flash Release/sntp.o
 .debug_aranges
                0x00000680       0x20 ARM Flash Release/telnetd.o
 .debug_aranges
                0x000006a0       0x20 ARM Flash Release/httpd.o
 .debug_aranges
                0x000006c0       0x20 ARM Flash Release/httpd-cgi.o
 .debug_aranges
                0x000006e0       0x20 ARM Flash Release/httpd-fs.o
 .debug_aranges
                0x00000700       0x20 ARM Flash Release/enc28j60.o
 .debug_aranges
                0x00000720       0x20 ARM Flash Release/memb.o
 .debug_aranges
                0x00000740       0x20 ARM Flash Release/psock.o
 .debug_aranges
                0x00000760       0x20 ARM Flash Release/uip.o
 .debug_aranges
                0x00000780       0x20 ARM Flash Release/uip_arch.o
 .debug_aranges
                0x000007a0       0x20 ARM Flash Release/uip_arp.o
 .debug_aranges
                0x000007c0       0x20 ARM Flash Release/uip_timer.o
 .debug_aranges
                0x000007e0       0x20 ARM Flash Release/uip-fw.o
 .debug_aranges
                0x00000800       0x20 ARM Flash Release/uiplib.o
 .debug_aranges
                0x00000820       0x20 ARM Flash Release/uip-neighbor.o
 .debug_aranges
                0x00000840       0x20 ARM Flash Release/clock.o
 .debug_aranges
                0x00000860       0x20 ARM Flash Release/uiptask.o
 .debug_aranges
                0x00000880       0x20 ARM Flash Release/disk.o
 .debug_aranges
                0x000008a0       0x20 ARM Flash Release/ff.o
 .debug_aranges
                0x000008c0       0x20 C:/Program Files/Rowley Associates Limited/CrossWorks for ARM 2.0/lib/libm_v4t_a_le.a(log.o)
 .debug_aranges
                0x000008e0       0x20 C:/Program Files/Rowley Associates Limited/CrossWorks for ARM 2.0/lib/libm_v4t_a_le.a(__poly1_eval.o)
 .debug_aranges
                0x00000900       0x20 C:/Program Files/Rowley Associates Limited/CrossWorks for ARM 2.0/lib/libm_v4t_a_le.a(__poly_eval.o)
 .debug_aranges
                0x00000920       0x20 C:/Program Files/Rowley Associates Limited/CrossWorks for ARM 2.0/lib/libm_v4t_a_le.a(frexp.o)
 .debug_aranges
                0x00000940       0x20 C:/Program Files/Rowley Associates Limited/CrossWorks for ARM 2.0/lib/libm_v4t_a_le.a(ldexp.o)
 .debug_aranges
                0x00000960       0x20 C:/Program Files/Rowley Associates Limited/CrossWorks for ARM 2.0/lib/libc_v4t_a_le.a(memcmp.o)
 .debug_aranges
                0x00000980       0x20 C:/Program Files/Rowley Associates Limited/CrossWorks for ARM 2.0/lib/libc_v4t_a_le.a(strcat.o)
 .debug_aranges
                0x000009a0       0x20 C:/Program Files/Rowley Associates Limited/CrossWorks for ARM 2.0/lib/libc_v4t_a_le.a(strchr.o)
 .debug_aranges
                0x000009c0       0x20 C:/Program Files/Rowley Associates Limited/CrossWorks for ARM 2.0/lib/libc_v4t_a_le.a(strncmp.o)
 .debug_aranges
                0x000009e0       0x20 C:/Program Files/Rowley Associates Limited/CrossWorks for ARM 2.0/lib/libc_v4t_a_le.a(strncpy.o)
 .debug_aranges
                0x00000a00       0x20 C:/Program Files/Rowley Associates Limited/CrossWorks for ARM 2.0/lib/libc_v4t_a_le.a(strrchr.o)
 .debug_aranges
                0x00000a20       0x20 C:/Program Files/Rowley Associates Limited/CrossWorks for ARM 2.0/lib/libc_v4t_a_le.a(strstr.o)
 .debug_aranges
                0x00000a40       0x20 C:/Program Files/Rowley Associates Limited/CrossWorks for ARM 2.0/lib/libc_v4t_a_le.a(ctype.o)
 .debug_aranges
                0x00000a60       0x20 C:/Program Files/Rowley Associates Limited/CrossWorks for ARM 2.0/lib/libc_v4t_a_le.a(malloc.o)
 .debug_aranges
                0x00000a80       0x20 C:/Program Files/Rowley Associates Limited/CrossWorks for ARM 2.0/lib/libc_v4t_a_le.a(atoi.o)
 .debug_aranges
                0x00000aa0       0x20 C:/Program Files/Rowley Associates Limited/CrossWorks for ARM 2.0/lib/libc_v4t_a_le.a(time.o)
 .debug_aranges
                0x00000ac0       0x20 C:/Program Files/Rowley Associates Limited/CrossWorks for ARM 2.0/lib/libc_v4t_a_le.a(asctime.o)
 .debug_aranges
                0x00000ae0       0x20 C:/Program Files/Rowley Associates Limited/CrossWorks for ARM 2.0/lib/libc_v4t_a_le.a(strftime.o)
 .debug_aranges
                0x00000b00       0x20 C:/Program Files/Rowley Associates Limited/CrossWorks for ARM 2.0/lib/libc_v4t_a_le.a(div.o)
 .debug_aranges
                0x00000b20       0x20 C:/Program Files/Rowley Associates Limited/CrossWorks for ARM 2.0/lib/libc_v4t_a_le.a(strtol.o)
 .debug_aranges
                0x00000b40       0x20 C:/Program Files/Rowley Associates Limited/CrossWorks for ARM 2.0/lib/libc_v4t_a_le.a(ldiv.o)
 .debug_aranges
                0x00000b60       0x20 C:/Program Files/Rowley Associates Limited/CrossWorks for ARM 2.0/lib/libc_v4t_a_le.a(__strtoul.o)
 .debug_aranges
                0x00000b80       0x20 C:/Program Files/Rowley Associates Limited/CrossWorks for ARM 2.0/lib/libc_v4t_a_le.a(__digit.o)
 .debug_aranges
                0x00000ba0       0x20 C:/Program Files/Rowley Associates Limited/CrossWorks for ARM 2.0/lib/libdebugio_v4t_a_le.a(debug_printf.o)
 .debug_aranges
                0x00000bc0       0x20 C:/Program Files/Rowley Associates Limited/CrossWorks for ARM 2.0/lib/libc_targetio_impl_v4t_a_le.a(putchar.o)
 .debug_aranges
                0x00000be0       0x20 C:/Program Files/Rowley Associates Limited/CrossWorks for ARM 2.0/lib/libc_user_libc_v4t_a_le.a(user_libc.o)
 .debug_aranges
                0x00000c00       0x20 C:/Program Files/Rowley Associates Limited/CrossWorks for ARM 2.0/lib/libdebugio_dcc_v4t_a_le.a(dcc_debug_operations.o)
 .debug_aranges
                0x00000c20       0x20 C:/Program Files/Rowley Associates Limited/CrossWorks for ARM 2.0/lib/libdebugio_dcc_v4t_a_le.a(libarm_run_dcc_port_server.o)

.debug_str      0x00000000     0x46ff
 .debug_str     0x00000000       0x95 ARM Flash Release/main.o
 .debug_str     0x00000095       0xdb ARM Flash Release/adc.o
                                 0xe7 (size before relaxing)
 .debug_str     0x00000170       0x76 ARM Flash Release/cpu.o
                                 0x82 (size before relaxing)
 .debug_str     0x000001e6       0x6f ARM Flash Release/i2c.o
                                 0x7b (size before relaxing)
 .debug_str     0x00000255      0x141 ARM Flash Release/i2cInt.o
                                0x14d (size before relaxing)
 .debug_str     0x00000396       0x95 ARM Flash Release/pwm.o
                                 0xa1 (size before relaxing)
 .debug_str     0x0000042b       0x66 ARM Flash Release/spi.o
                                 0x72 (size before relaxing)
 .debug_str     0x00000491       0xa9 ARM Flash Release/uart0.o
                                 0xb5 (size before relaxing)
 .debug_str     0x0000053a       0x8c ARM Flash Release/uart0ISR.o
                                 0x98 (size before relaxing)
 .debug_str     0x000005c6       0xa9 ARM Flash Release/uart1.o
                                 0xb5 (size before relaxing)
 .debug_str     0x0000066f       0x8c ARM Flash Release/uart1ISR.o
                                 0x98 (size before relaxing)
 .debug_str     0x000006fb       0xbe ARM Flash Release/usbcontrol.o
                                 0xca (size before relaxing)
 .debug_str     0x000007b9       0x7e ARM Flash Release/usbinit.o
                                 0x8a (size before relaxing)
 .debug_str     0x00000837      0x265 ARM Flash Release/usbISR.o
                                0x271 (size before relaxing)
 .debug_str     0x00000a9c      0x115 ARM Flash Release/usbstdreq.o
                                0x121 (size before relaxing)
 .debug_str     0x00000bb1       0xf4 ARM Flash Release/usbser.o
                                0x10f (size before relaxing)
 .debug_str     0x00000ca5      0x157 ARM Flash Release/rtc.o
                                0x168 (size before relaxing)
 .debug_str     0x00000dfc       0x7b ARM Flash Release/rtcISR.o
                                 0x87 (size before relaxing)
 .debug_str     0x00000e77       0x58 ARM Flash Release/reset.o
                                 0x6a (size before relaxing)
 .debug_str     0x00000ecf       0x71 ARM Flash Release/eint0.o
                                 0x7d (size before relaxing)
 .debug_str     0x00000f40       0x78 ARM Flash Release/eint0ISR.o
                                 0x84 (size before relaxing)
 .debug_str     0x00000fb8       0x71 ARM Flash Release/eint2.o
                                 0x7d (size before relaxing)
 .debug_str     0x00001029       0x78 ARM Flash Release/eint2ISR.o
                                 0x84 (size before relaxing)
 .debug_str     0x000010a1       0x71 ARM Flash Release/eint3.o
                                 0x7d (size before relaxing)
 .debug_str     0x00001112       0x78 ARM Flash Release/eint3ISR.o
                                 0x84 (size before relaxing)
 .debug_str     0x0000118a       0x71 ARM Flash Release/eint1.o
                                 0x7d (size before relaxing)
 .debug_str     0x000011fb       0x78 ARM Flash Release/eint1ISR.o
                                 0x84 (size before relaxing)
 .debug_str     0x00001273       0x97 ARM Flash Release/beep.o
                                 0xa3 (size before relaxing)
 .debug_str     0x0000130a       0xfd ARM Flash Release/timer.o
                                0x109 (size before relaxing)
 .debug_str     0x00001407       0x6f ARM Flash Release/dac.o
                                 0x7b (size before relaxing)
 .debug_str     0x00001476       0x75 ARM Flash Release/args.o
                                 0x81 (size before relaxing)
 .debug_str     0x000014eb       0x6c ARM Flash Release/argsdispatch.o
                                 0x78 (size before relaxing)
 .debug_str     0x00001557      0x259 ARM Flash Release/monitor.o
                                0x265 (size before relaxing)
 .debug_str     0x000017b0       0x81 ARM Flash Release/printf-stdarg.o
                                 0xa0 (size before relaxing)
 .debug_str     0x00001831       0xa6 ARM Flash Release/leds.o
                                 0xb2 (size before relaxing)
 .debug_str     0x000018d7       0xce ARM Flash Release/tcs3414.o
                                 0xda (size before relaxing)
 .debug_str     0x000019a5       0xff ARM Flash Release/mmc.o
                                0x10b (size before relaxing)
 .debug_str     0x00001aa4       0xf6 ARM Flash Release/ssp.o
                                0x102 (size before relaxing)
 .debug_str     0x00001b9a       0xed ARM Flash Release/Lcd204_4.o
                                 0xf9 (size before relaxing)
 .debug_str     0x00001c87      0x14e ARM Flash Release/logging.o
                                0x16b (size before relaxing)
 .debug_str     0x00001dd5      0x1e5 ARM Flash Release/meas_sm.o
                                0x200 (size before relaxing)
 .debug_str     0x00001fba       0xa5 ARM Flash Release/meas_task.o
                                 0xb1 (size before relaxing)
 .debug_str     0x0000205f       0xa7 ARM Flash Release/LPC210x.o
                                 0xb3 (size before relaxing)
 .debug_str     0x00002106       0xa4 ARM Flash Release/VIC.o
                                 0xb0 (size before relaxing)
 .debug_str     0x000021aa       0xcd ARM Flash Release/portISR.o
                                 0xd9 (size before relaxing)
 .debug_str     0x00002277       0xcc ARM Flash Release/port.o
                                 0xd8 (size before relaxing)
 .debug_str     0x00002343       0xb4 ARM Flash Release/heap_2.o
                                 0xc0 (size before relaxing)
 .debug_str     0x000023f7      0x33f ARM Flash Release/tasks.o
                                0x34b (size before relaxing)
 .debug_str     0x00002736      0x228 ARM Flash Release/queue.o
                                0x234 (size before relaxing)
 .debug_str     0x0000295e       0xaa ARM Flash Release/list.o
                                 0xb6 (size before relaxing)
 .debug_str     0x00002a08      0x112 ARM Flash Release/dhcpc.o
                                0x11e (size before relaxing)
 .debug_str     0x00002b1a       0x9a ARM Flash Release/sntp.o
                                 0xa6 (size before relaxing)
 .debug_str     0x00002bb4      0x18b ARM Flash Release/telnetd.o
                                0x197 (size before relaxing)
 .debug_str     0x00002d3f      0x107 ARM Flash Release/httpd.o
                                0x113 (size before relaxing)
 .debug_str     0x00002e46       0xd1 ARM Flash Release/httpd-cgi.o
                                 0xfc (size before relaxing)
 .debug_str     0x00002f17       0xa1 ARM Flash Release/httpd-fs.o
                                 0xad (size before relaxing)
 .debug_str     0x00002fb8      0x16a ARM Flash Release/enc28j60.o
                                0x176 (size before relaxing)
 .debug_str     0x00003122       0x76 ARM Flash Release/memb.o
                                 0x82 (size before relaxing)
 .debug_str     0x00003198       0xef ARM Flash Release/psock.o
                                 0xfb (size before relaxing)
 .debug_str     0x00003287       0xea ARM Flash Release/uip.o
                                 0xf6 (size before relaxing)
 .debug_str     0x00003371       0x99 ARM Flash Release/uip_arch.o
                                 0xac (size before relaxing)
 .debug_str     0x0000340a       0xab ARM Flash Release/uip_arp.o
                                 0xb7 (size before relaxing)
 .debug_str     0x000034b5       0x8e ARM Flash Release/uip_timer.o
                                 0x9a (size before relaxing)
 .debug_str     0x00003543       0xea ARM Flash Release/uip-fw.o
                                 0xf6 (size before relaxing)
 .debug_str     0x0000362d       0x6b ARM Flash Release/uiplib.o
                                 0x77 (size before relaxing)
 .debug_str     0x00003698       0xcb ARM Flash Release/uip-neighbor.o
                                 0xd7 (size before relaxing)
 .debug_str     0x00003763       0x5f ARM Flash Release/clock.o
                                 0x6b (size before relaxing)
 .debug_str     0x000037c2       0xc4 ARM Flash Release/uiptask.o
                                 0xd0 (size before relaxing)
 .debug_str     0x00003886       0xc6 ARM Flash Release/disk.o
                                 0xd2 (size before relaxing)
 .debug_str     0x0000394c      0x19d ARM Flash Release/ff.o
                                0x1ae (size before relaxing)
 .debug_str     0x00003ae9       0x55 C:/Program Files/Rowley Associates Limited/CrossWorks for ARM 2.0/lib/libm_v4t_a_le.a(log.o)
                                 0x61 (size before relaxing)
 .debug_str     0x00003b3e       0x6b C:/Program Files/Rowley Associates Limited/CrossWorks for ARM 2.0/lib/libm_v4t_a_le.a(__poly1_eval.o)
                                 0x77 (size before relaxing)
 .debug_str     0x00003ba9       0x69 C:/Program Files/Rowley Associates Limited/CrossWorks for ARM 2.0/lib/libm_v4t_a_le.a(__poly_eval.o)
                                 0x75 (size before relaxing)
 .debug_str     0x00003c12       0x5d C:/Program Files/Rowley Associates Limited/CrossWorks for ARM 2.0/lib/libm_v4t_a_le.a(frexp.o)
                                 0x69 (size before relaxing)
 .debug_str     0x00003c6f       0x5d C:/Program Files/Rowley Associates Limited/CrossWorks for ARM 2.0/lib/libm_v4t_a_le.a(ldexp.o)
                                 0x69 (size before relaxing)
 .debug_str     0x00003ccc       0x5a C:/Program Files/Rowley Associates Limited/CrossWorks for ARM 2.0/lib/libc_v4t_a_le.a(memcmp.o)
                                 0x66 (size before relaxing)
 .debug_str     0x00003d26       0x5a C:/Program Files/Rowley Associates Limited/CrossWorks for ARM 2.0/lib/libc_v4t_a_le.a(strcat.o)
                                 0x66 (size before relaxing)
 .debug_str     0x00003d80       0x5a C:/Program Files/Rowley Associates Limited/CrossWorks for ARM 2.0/lib/libc_v4t_a_le.a(strchr.o)
                                 0x66 (size before relaxing)
 .debug_str     0x00003dda       0x5c C:/Program Files/Rowley Associates Limited/CrossWorks for ARM 2.0/lib/libc_v4t_a_le.a(strncmp.o)
                                 0x68 (size before relaxing)
 .debug_str     0x00003e36       0x5c C:/Program Files/Rowley Associates Limited/CrossWorks for ARM 2.0/lib/libc_v4t_a_le.a(strncpy.o)
                                 0x68 (size before relaxing)
 .debug_str     0x00003e92       0x5c C:/Program Files/Rowley Associates Limited/CrossWorks for ARM 2.0/lib/libc_v4t_a_le.a(strrchr.o)
                                 0x68 (size before relaxing)
 .debug_str     0x00003eee       0x5a C:/Program Files/Rowley Associates Limited/CrossWorks for ARM 2.0/lib/libc_v4t_a_le.a(strstr.o)
                                 0x66 (size before relaxing)
 .debug_str     0x00003f48       0xc3 C:/Program Files/Rowley Associates Limited/CrossWorks for ARM 2.0/lib/libc_v4t_a_le.a(ctype.o)
                                 0xcf (size before relaxing)
 .debug_str     0x0000400b       0x69 C:/Program Files/Rowley Associates Limited/CrossWorks for ARM 2.0/lib/libc_v4t_a_le.a(malloc.o)
                                 0x7a (size before relaxing)
 .debug_str     0x00004074       0x56 C:/Program Files/Rowley Associates Limited/CrossWorks for ARM 2.0/lib/libc_v4t_a_le.a(atoi.o)
                                 0x62 (size before relaxing)
 .debug_str     0x000040ca       0x8f C:/Program Files/Rowley Associates Limited/CrossWorks for ARM 2.0/lib/libc_v4t_a_le.a(time.o)
                                 0xa9 (size before relaxing)
 .debug_str     0x00004159       0x66 C:/Program Files/Rowley Associates Limited/CrossWorks for ARM 2.0/lib/libc_v4t_a_le.a(asctime.o)
                                 0x7b (size before relaxing)
 .debug_str     0x000041bf       0xf6 C:/Program Files/Rowley Associates Limited/CrossWorks for ARM 2.0/lib/libc_v4t_a_le.a(strftime.o)
                                0x102 (size before relaxing)
 .debug_str     0x000042b5       0x50 C:/Program Files/Rowley Associates Limited/CrossWorks for ARM 2.0/lib/libc_v4t_a_le.a(div.o)
                                 0x5c (size before relaxing)
 .debug_str     0x00004305       0x5a C:/Program Files/Rowley Associates Limited/CrossWorks for ARM 2.0/lib/libc_v4t_a_le.a(strtol.o)
                                 0x66 (size before relaxing)
 .debug_str     0x0000435f       0x56 C:/Program Files/Rowley Associates Limited/CrossWorks for ARM 2.0/lib/libc_v4t_a_le.a(ldiv.o)
                                 0x62 (size before relaxing)
 .debug_str     0x000043b5       0x60 C:/Program Files/Rowley Associates Limited/CrossWorks for ARM 2.0/lib/libc_v4t_a_le.a(__strtoul.o)
                                 0x6c (size before relaxing)
 .debug_str     0x00004415       0x5c C:/Program Files/Rowley Associates Limited/CrossWorks for ARM 2.0/lib/libc_v4t_a_le.a(__digit.o)
                                 0x68 (size before relaxing)
 .debug_str     0x00004471       0x66 C:/Program Files/Rowley Associates Limited/CrossWorks for ARM 2.0/lib/libdebugio_v4t_a_le.a(debug_printf.o)
                                 0x72 (size before relaxing)
 .debug_str     0x000044d7       0x54 C:/Program Files/Rowley Associates Limited/CrossWorks for ARM 2.0/lib/libc_targetio_impl_v4t_a_le.a(putchar.o)
                                 0x68 (size before relaxing)
 .debug_str     0x0000452b       0xd4 C:/Program Files/Rowley Associates Limited/CrossWorks for ARM 2.0/lib/libc_user_libc_v4t_a_le.a(user_libc.o)
                                 0xe0 (size before relaxing)
 .debug_str     0x000045ff       0x7a C:/Program Files/Rowley Associates Limited/CrossWorks for ARM 2.0/lib/libdebugio_dcc_v4t_a_le.a(dcc_debug_operations.o)
                                 0x86 (size before relaxing)
 .debug_str     0x00004679       0x86 C:/Program Files/Rowley Associates Limited/CrossWorks for ARM 2.0/lib/libdebugio_dcc_v4t_a_le.a(libarm_run_dcc_port_server.o)
                                 0x92 (size before relaxing)

.comment        0x00000000       0x35
 .comment       0x00000000       0x11 ARM Flash Release/main.o
                                 0x12 (size before relaxing)
 .comment       0x00000000       0x12 ARM Flash Release/adc.o
 .comment       0x00000000       0x12 ARM Flash Release/cpu.o
 .comment       0x00000000       0x12 ARM Flash Release/i2c.o
 .comment       0x00000000       0x12 ARM Flash Release/i2cInt.o
 .comment       0x00000000       0x12 ARM Flash Release/pwm.o
 .comment       0x00000000       0x12 ARM Flash Release/spi.o
 .comment       0x00000000       0x12 ARM Flash Release/uart0.o
 .comment       0x00000000       0x12 ARM Flash Release/uart0ISR.o
 .comment       0x00000000       0x12 ARM Flash Release/uart1.o
 .comment       0x00000000       0x12 ARM Flash Release/uart1ISR.o
 .comment       0x00000000       0x12 ARM Flash Release/usbcontrol.o
 .comment       0x00000000       0x12 ARM Flash Release/usbinit.o
 .comment       0x00000000       0x12 ARM Flash Release/usbISR.o
 .comment       0x00000000       0x12 ARM Flash Release/usbstdreq.o
 .comment       0x00000000       0x12 ARM Flash Release/usbser.o
 .comment       0x00000000       0x12 ARM Flash Release/rtc.o
 .comment       0x00000000       0x12 ARM Flash Release/rtcISR.o
 .comment       0x00000000       0x12 ARM Flash Release/reset.o
 .comment       0x00000000       0x12 ARM Flash Release/eint0.o
 .comment       0x00000000       0x12 ARM Flash Release/eint0ISR.o
 .comment       0x00000000       0x12 ARM Flash Release/eint2.o
 .comment       0x00000000       0x12 ARM Flash Release/eint2ISR.o
 .comment       0x00000000       0x12 ARM Flash Release/eint3.o
 .comment       0x00000000       0x12 ARM Flash Release/eint3ISR.o
 .comment       0x00000000       0x12 ARM Flash Release/eint1.o
 .comment       0x00000000       0x12 ARM Flash Release/eint1ISR.o
 .comment       0x00000000       0x12 ARM Flash Release/beep.o
 .comment       0x00000000       0x12 ARM Flash Release/timer.o
 .comment       0x00000000       0x12 ARM Flash Release/freqCounter.o
 .comment       0x00000000       0x12 ARM Flash Release/dac.o
 .comment       0x00000000       0x12 ARM Flash Release/args.o
 .comment       0x00000000       0x12 ARM Flash Release/argsdispatch.o
 .comment       0x00000000       0x12 ARM Flash Release/monitor.o
 .comment       0x00000000       0x12 ARM Flash Release/printf-stdarg.o
 .comment       0x00000000       0x12 ARM Flash Release/leds.o
 .comment       0x00000000       0x12 ARM Flash Release/tcs3414.o
 .comment       0x00000000       0x12 ARM Flash Release/mmc.o
 .comment       0x00000000       0x12 ARM Flash Release/ssp.o
 .comment       0x00000000       0x12 ARM Flash Release/Lcd204_4.o
 .comment       0x00000000       0x12 ARM Flash Release/logging.o
 .comment       0x00000000       0x12 ARM Flash Release/meas_sm.o
 .comment       0x00000000       0x12 ARM Flash Release/meas_task.o
 .comment       0x00000000       0x12 ARM Flash Release/LPC210x.o
 .comment       0x00000000       0x12 ARM Flash Release/VIC.o
 .comment       0x00000000       0x12 ARM Flash Release/portISR.o
 .comment       0x00000000       0x12 ARM Flash Release/port.o
 .comment       0x00000000       0x12 ARM Flash Release/heap_2.o
 .comment       0x00000000       0x12 ARM Flash Release/tasks.o
 .comment       0x00000000       0x12 ARM Flash Release/queue.o
 .comment       0x00000000       0x12 ARM Flash Release/list.o
 .comment       0x00000000       0x12 ARM Flash Release/dhcpc.o
 .comment       0x00000000       0x12 ARM Flash Release/sntp.o
 .comment       0x00000000       0x12 ARM Flash Release/telnetd.o
 .comment       0x00000000       0x12 ARM Flash Release/httpd.o
 .comment       0x00000000       0x12 ARM Flash Release/httpd-cgi.o
 .comment       0x00000000       0x12 ARM Flash Release/httpd-fs.o
 .comment       0x00000000       0x12 ARM Flash Release/http-strings.o
 .comment       0x00000000       0x12 ARM Flash Release/enc28j60.o
 .comment       0x00000000       0x12 ARM Flash Release/memb.o
 .comment       0x00000000       0x12 ARM Flash Release/psock.o
 .comment       0x00000000       0x12 ARM Flash Release/uip.o
 .comment       0x00000000       0x12 ARM Flash Release/uip_arch.o
 .comment       0x00000000       0x12 ARM Flash Release/uip_arp.o
 .comment       0x00000000       0x12 ARM Flash Release/uip_timer.o
 .comment       0x00000000       0x12 ARM Flash Release/uip-fw.o
 .comment       0x00000000       0x12 ARM Flash Release/uiplib.o
 .comment       0x00000000       0x12 ARM Flash Release/uip-neighbor.o
 .comment       0x00000000       0x12 ARM Flash Release/clock.o
 .comment       0x00000000       0x12 ARM Flash Release/uiptask.o
 .comment       0x00000000       0x12 ARM Flash Release/disk.o
 .comment       0x00000000       0x12 ARM Flash Release/ff.o
 .comment       0x00000011       0x12 C:/Users/lukas/AppData/Local/Rowley Associates Limited/CrossWorks for ARM/packages/lib/liblpc2000_v4t_a_le.a(liblpc2000_lpc21xx_get_cclk.o)
 .comment       0x00000023       0x12 C:/Users/lukas/AppData/Local/Rowley Associates Limited/CrossWorks for ARM/packages/lib/liblpc2000_v4t_a_le.a(liblpc2000_lpc21xx_get_pclk.o)
 .comment       0x00000000       0x12 C:/Program Files/Rowley Associates Limited/CrossWorks for ARM 2.0/lib/libm_v4t_a_le.a(log.o)
 .comment       0x00000000       0x12 C:/Program Files/Rowley Associates Limited/CrossWorks for ARM 2.0/lib/libm_v4t_a_le.a(__float64_infinity.o)
 .comment       0x00000000       0x12 C:/Program Files/Rowley Associates Limited/CrossWorks for ARM 2.0/lib/libm_v4t_a_le.a(__float64_nan.o)
 .comment       0x00000000       0x12 C:/Program Files/Rowley Associates Limited/CrossWorks for ARM 2.0/lib/libm_v4t_a_le.a(__poly1_eval.o)
 .comment       0x00000000       0x12 C:/Program Files/Rowley Associates Limited/CrossWorks for ARM 2.0/lib/libm_v4t_a_le.a(__poly_eval.o)
 .comment       0x00000000       0x12 C:/Program Files/Rowley Associates Limited/CrossWorks for ARM 2.0/lib/libm_v4t_a_le.a(frexp.o)
 .comment       0x00000000       0x12 C:/Program Files/Rowley Associates Limited/CrossWorks for ARM 2.0/lib/libm_v4t_a_le.a(ldexp.o)
 .comment       0x00000000       0x12 C:/Program Files/Rowley Associates Limited/CrossWorks for ARM 2.0/lib/libc_v4t_a_le.a(memcmp.o)
 .comment       0x00000000       0x12 C:/Program Files/Rowley Associates Limited/CrossWorks for ARM 2.0/lib/libc_v4t_a_le.a(strcat.o)
 .comment       0x00000000       0x12 C:/Program Files/Rowley Associates Limited/CrossWorks for ARM 2.0/lib/libc_v4t_a_le.a(strchr.o)
 .comment       0x00000000       0x12 C:/Program Files/Rowley Associates Limited/CrossWorks for ARM 2.0/lib/libc_v4t_a_le.a(strncmp.o)
 .comment       0x00000000       0x12 C:/Program Files/Rowley Associates Limited/CrossWorks for ARM 2.0/lib/libc_v4t_a_le.a(strncpy.o)
 .comment       0x00000000       0x12 C:/Program Files/Rowley Associates Limited/CrossWorks for ARM 2.0/lib/libc_v4t_a_le.a(strrchr.o)
 .comment       0x00000000       0x12 C:/Program Files/Rowley Associates Limited/CrossWorks for ARM 2.0/lib/libc_v4t_a_le.a(strstr.o)
 .comment       0x00000000       0x12 C:/Program Files/Rowley Associates Limited/CrossWorks for ARM 2.0/lib/libc_v4t_a_le.a(ctype.o)
 .comment       0x00000000       0x12 C:/Program Files/Rowley Associates Limited/CrossWorks for ARM 2.0/lib/libc_v4t_a_le.a(malloc.o)
 .comment       0x00000000       0x12 C:/Program Files/Rowley Associates Limited/CrossWorks for ARM 2.0/lib/libc_v4t_a_le.a(atoi.o)
 .comment       0x00000000       0x12 C:/Program Files/Rowley Associates Limited/CrossWorks for ARM 2.0/lib/libc_v4t_a_le.a(time.o)
 .comment       0x00000000       0x12 C:/Program Files/Rowley Associates Limited/CrossWorks for ARM 2.0/lib/libc_v4t_a_le.a(asctime.o)
 .comment       0x00000000       0x12 C:/Program Files/Rowley Associates Limited/CrossWorks for ARM 2.0/lib/libc_v4t_a_le.a(strftime.o)
 .comment       0x00000000       0x12 C:/Program Files/Rowley Associates Limited/CrossWorks for ARM 2.0/lib/libc_v4t_a_le.a(div.o)
 .comment       0x00000000       0x12 C:/Program Files/Rowley Associates Limited/CrossWorks for ARM 2.0/lib/libc_v4t_a_le.a(strtol.o)
 .comment       0x00000000       0x12 C:/Program Files/Rowley Associates Limited/CrossWorks for ARM 2.0/lib/libc_v4t_a_le.a(ldiv.o)
 .comment       0x00000000       0x12 C:/Program Files/Rowley Associates Limited/CrossWorks for ARM 2.0/lib/libc_v4t_a_le.a(__strtoul.o)
 .comment       0x00000000       0x12 C:/Program Files/Rowley Associates Limited/CrossWorks for ARM 2.0/lib/libc_v4t_a_le.a(__digit.o)
 .comment       0x00000000       0x12 C:/Program Files/Rowley Associates Limited/CrossWorks for ARM 2.0/lib/libdebugio_v4t_a_le.a(debug_printf.o)
 .comment       0x00000000       0x12 C:/Program Files/Rowley Associates Limited/CrossWorks for ARM 2.0/lib/libc_targetio_impl_v4t_a_le.a(putchar.o)
 .comment       0x00000000       0x12 C:/Program Files/Rowley Associates Limited/CrossWorks for ARM 2.0/lib/libc_user_libc_v4t_a_le.a(user_libc.o)
 .comment       0x00000000       0x12 C:/Program Files/Rowley Associates Limited/CrossWorks for ARM 2.0/lib/libdebugio_dcc_v4t_a_le.a(dcc_debug_operations.o)
 .comment       0x00000000       0x12 C:/Program Files/Rowley Associates Limited/CrossWorks for ARM 2.0/lib/libdebugio_dcc_v4t_a_le.a(libarm_run_dcc_port_server.o)

.ARM.attributes
                0x00000000       0x10
 .ARM.attributes
                0x00000000       0x10 ARM Flash Release/main.o
 .ARM.attributes
                0x00000010       0x10 ARM Flash Release/adc.o
 .ARM.attributes
                0x00000020       0x10 ARM Flash Release/cpu.o
 .ARM.attributes
                0x00000030       0x10 ARM Flash Release/i2c.o
 .ARM.attributes
                0x00000040       0x10 ARM Flash Release/i2cInt.o
 .ARM.attributes
                0x00000050       0x10 ARM Flash Release/pwm.o
 .ARM.attributes
                0x00000060       0x10 ARM Flash Release/spi.o
 .ARM.attributes
                0x00000070       0x10 ARM Flash Release/uart0.o
 .ARM.attributes
                0x00000080       0x10 ARM Flash Release/uart0ISR.o
 .ARM.attributes
                0x00000090       0x10 ARM Flash Release/uart1.o
 .ARM.attributes
                0x000000a0       0x10 ARM Flash Release/uart1ISR.o
 .ARM.attributes
                0x000000b0       0x10 ARM Flash Release/usbcontrol.o
 .ARM.attributes
                0x000000c0       0x10 ARM Flash Release/usbinit.o
 .ARM.attributes
                0x000000d0       0x10 ARM Flash Release/usbISR.o
 .ARM.attributes
                0x000000e0       0x10 ARM Flash Release/usbstdreq.o
 .ARM.attributes
                0x000000f0       0x10 ARM Flash Release/usbser.o
 .ARM.attributes
                0x00000100       0x10 ARM Flash Release/rtc.o
 .ARM.attributes
                0x00000110       0x10 ARM Flash Release/rtcISR.o
 .ARM.attributes
                0x00000120       0x10 ARM Flash Release/reset.o
 .ARM.attributes
                0x00000130       0x10 ARM Flash Release/eint0.o
 .ARM.attributes
                0x00000140       0x10 ARM Flash Release/eint0ISR.o
 .ARM.attributes
                0x00000150       0x10 ARM Flash Release/eint2.o
 .ARM.attributes
                0x00000160       0x10 ARM Flash Release/eint2ISR.o
 .ARM.attributes
                0x00000170       0x10 ARM Flash Release/eint3.o
 .ARM.attributes
                0x00000180       0x10 ARM Flash Release/eint3ISR.o
 .ARM.attributes
                0x00000190       0x10 ARM Flash Release/eint1.o
 .ARM.attributes
                0x000001a0       0x10 ARM Flash Release/eint1ISR.o
 .ARM.attributes
                0x000001b0       0x10 ARM Flash Release/beep.o
 .ARM.attributes
                0x000001c0       0x10 ARM Flash Release/timer.o
 .ARM.attributes
                0x000001d0       0x10 ARM Flash Release/freqCounter.o
 .ARM.attributes
                0x000001e0       0x10 ARM Flash Release/dac.o
 .ARM.attributes
                0x000001f0       0x10 ARM Flash Release/args.o
 .ARM.attributes
                0x00000200       0x10 ARM Flash Release/argsdispatch.o
 .ARM.attributes
                0x00000210       0x10 ARM Flash Release/monitor.o
 .ARM.attributes
                0x00000220       0x10 ARM Flash Release/printf-stdarg.o
 .ARM.attributes
                0x00000230       0x10 ARM Flash Release/leds.o
 .ARM.attributes
                0x00000240       0x10 ARM Flash Release/tcs3414.o
 .ARM.attributes
                0x00000250       0x10 ARM Flash Release/mmc.o
 .ARM.attributes
                0x00000260       0x10 ARM Flash Release/ssp.o
 .ARM.attributes
                0x00000270       0x10 ARM Flash Release/Lcd204_4.o
 .ARM.attributes
                0x00000280       0x10 ARM Flash Release/logging.o
 .ARM.attributes
                0x00000290       0x10 ARM Flash Release/meas_sm.o
 .ARM.attributes
                0x000002a0       0x10 ARM Flash Release/meas_task.o
 .ARM.attributes
                0x000002b0       0x10 ARM Flash Release/crt0.o
 .ARM.attributes
                0x000002c0       0x10 ARM Flash Release/Philips_LPC210X_Startup.o
 .ARM.attributes
                0x000002d0       0x10 ARM Flash Release/LPC210x.o
 .ARM.attributes
                0x000002e0       0x10 ARM Flash Release/VIC.o
 .ARM.attributes
                0x000002f0       0x10 ARM Flash Release/VIC_irq_handler.o
 .ARM.attributes
                0x00000300       0x10 ARM Flash Release/portISR.o
 .ARM.attributes
                0x00000310       0x10 ARM Flash Release/port.o
 .ARM.attributes
                0x00000320       0x10 ARM Flash Release/heap_2.o
 .ARM.attributes
                0x00000330       0x10 ARM Flash Release/tasks.o
 .ARM.attributes
                0x00000340       0x10 ARM Flash Release/queue.o
 .ARM.attributes
                0x00000350       0x10 ARM Flash Release/list.o
 .ARM.attributes
                0x00000360       0x10 ARM Flash Release/dhcpc.o
 .ARM.attributes
                0x00000370       0x10 ARM Flash Release/sntp.o
 .ARM.attributes
                0x00000380       0x10 ARM Flash Release/telnetd.o
 .ARM.attributes
                0x00000390       0x10 ARM Flash Release/httpd.o
 .ARM.attributes
                0x000003a0       0x10 ARM Flash Release/httpd-cgi.o
 .ARM.attributes
                0x000003b0       0x10 ARM Flash Release/httpd-fs.o
 .ARM.attributes
                0x000003c0       0x10 ARM Flash Release/http-strings.o
 .ARM.attributes
                0x000003d0       0x10 ARM Flash Release/enc28j60.o
 .ARM.attributes
                0x000003e0       0x10 ARM Flash Release/memb.o
 .ARM.attributes
                0x000003f0       0x10 ARM Flash Release/psock.o
 .ARM.attributes
                0x00000400       0x10 ARM Flash Release/uip.o
 .ARM.attributes
                0x00000410       0x10 ARM Flash Release/uip_arch.o
 .ARM.attributes
                0x00000420       0x10 ARM Flash Release/uip_arp.o
 .ARM.attributes
                0x00000430       0x10 ARM Flash Release/uip_timer.o
 .ARM.attributes
                0x00000440       0x10 ARM Flash Release/uip-fw.o
 .ARM.attributes
                0x00000450       0x10 ARM Flash Release/uiplib.o
 .ARM.attributes
                0x00000460       0x10 ARM Flash Release/uip-neighbor.o
 .ARM.attributes
                0x00000470       0x10 ARM Flash Release/clock.o
 .ARM.attributes
                0x00000480       0x10 ARM Flash Release/uiptask.o
 .ARM.attributes
                0x00000490       0x10 ARM Flash Release/disk.o
 .ARM.attributes
                0x000004a0       0x10 ARM Flash Release/ff.o
 .ARM.attributes
                0x000004b0       0x10 C:/Program Files/Rowley Associates Limited/CrossWorks for ARM 2.0/lib/libm_v4t_a_le.a(__int32_to_float32.o)
 .ARM.attributes
                0x000004c0       0x10 C:/Program Files/Rowley Associates Limited/CrossWorks for ARM 2.0/lib/libm_v4t_a_le.a(__int32_to_float64.o)
 .ARM.attributes
                0x000004d0       0x10 C:/Program Files/Rowley Associates Limited/CrossWorks for ARM 2.0/lib/libm_v4t_a_le.a(__uint32_to_float32.o)
 .ARM.attributes
                0x000004e0       0x10 C:/Program Files/Rowley Associates Limited/CrossWorks for ARM 2.0/lib/libm_v4t_a_le.a(__uint32_to_float64.o)
 .ARM.attributes
                0x000004f0       0x10 C:/Program Files/Rowley Associates Limited/CrossWorks for ARM 2.0/lib/libm_v4t_a_le.a(__float32_to_int32.o)
 .ARM.attributes
                0x00000500       0x10 C:/Program Files/Rowley Associates Limited/CrossWorks for ARM 2.0/lib/libm_v4t_a_le.a(__float32_to_uint32.o)
 .ARM.attributes
                0x00000510       0x10 C:/Program Files/Rowley Associates Limited/CrossWorks for ARM 2.0/lib/libm_v4t_a_le.a(__float64_to_int32.o)
 .ARM.attributes
                0x00000520       0x10 C:/Program Files/Rowley Associates Limited/CrossWorks for ARM 2.0/lib/libm_v4t_a_le.a(__float32_to_float64.o)
 .ARM.attributes
                0x00000530       0x10 C:/Program Files/Rowley Associates Limited/CrossWorks for ARM 2.0/lib/libm_v4t_a_le.a(__float32_add.o)
 .ARM.attributes
                0x00000540       0x10 C:/Program Files/Rowley Associates Limited/CrossWorks for ARM 2.0/lib/libm_v4t_a_le.a(__float32_mul.o)
 .ARM.attributes
                0x00000550       0x10 C:/Program Files/Rowley Associates Limited/CrossWorks for ARM 2.0/lib/libm_v4t_a_le.a(__float32_div.o)
 .ARM.attributes
                0x00000560       0x10 C:/Program Files/Rowley Associates Limited/CrossWorks for ARM 2.0/lib/libm_v4t_a_le.a(__float32_cmp.o)
 .ARM.attributes
                0x00000570       0x10 C:/Program Files/Rowley Associates Limited/CrossWorks for ARM 2.0/lib/libm_v4t_a_le.a(log.o)
 .ARM.attributes
                0x00000580       0x10 C:/Program Files/Rowley Associates Limited/CrossWorks for ARM 2.0/lib/libm_v4t_a_le.a(__float64_add.o)
 .ARM.attributes
                0x00000590       0x10 C:/Program Files/Rowley Associates Limited/CrossWorks for ARM 2.0/lib/libm_v4t_a_le.a(__float64_mul.o)
 .ARM.attributes
                0x000005a0       0x10 C:/Program Files/Rowley Associates Limited/CrossWorks for ARM 2.0/lib/libm_v4t_a_le.a(__float64_div.o)
 .ARM.attributes
                0x000005b0       0x10 C:/Program Files/Rowley Associates Limited/CrossWorks for ARM 2.0/lib/libm_v4t_a_le.a(__float64_cmp.o)
 .ARM.attributes
                0x000005c0       0x10 C:/Program Files/Rowley Associates Limited/CrossWorks for ARM 2.0/lib/libm_v4t_a_le.a(__float64_isnan.o)
 .ARM.attributes
                0x000005d0       0x10 C:/Program Files/Rowley Associates Limited/CrossWorks for ARM 2.0/lib/libm_v4t_a_le.a(__float64_infinity.o)
 .ARM.attributes
                0x000005e0       0x10 C:/Program Files/Rowley Associates Limited/CrossWorks for ARM 2.0/lib/libm_v4t_a_le.a(__float64_nan.o)
 .ARM.attributes
                0x000005f0       0x10 C:/Program Files/Rowley Associates Limited/CrossWorks for ARM 2.0/lib/libm_v4t_a_le.a(__poly1_eval.o)
 .ARM.attributes
                0x00000600       0x10 C:/Program Files/Rowley Associates Limited/CrossWorks for ARM 2.0/lib/libm_v4t_a_le.a(__poly_eval.o)
 .ARM.attributes
                0x00000610       0x10 C:/Program Files/Rowley Associates Limited/CrossWorks for ARM 2.0/lib/libm_v4t_a_le.a(frexp.o)
 .ARM.attributes
                0x00000620       0x10 C:/Program Files/Rowley Associates Limited/CrossWorks for ARM 2.0/lib/libm_v4t_a_le.a(ldexp.o)
 .ARM.attributes
                0x00000630       0x10 C:/Program Files/Rowley Associates Limited/CrossWorks for ARM 2.0/lib/libc_v4t_a_le.a(__int32_umod.o)
 .ARM.attributes
                0x00000640       0x10 C:/Program Files/Rowley Associates Limited/CrossWorks for ARM 2.0/lib/libc_v4t_a_le.a(__int32_div.o)
 .ARM.attributes
                0x00000650       0x10 C:/Program Files/Rowley Associates Limited/CrossWorks for ARM 2.0/lib/libc_v4t_a_le.a(__int32_udivmod.o)
 .ARM.attributes
                0x00000660       0x10 C:/Program Files/Rowley Associates Limited/CrossWorks for ARM 2.0/lib/libc_v4t_a_le.a(strlen.o)
 .ARM.attributes
                0x00000670       0x10 C:/Program Files/Rowley Associates Limited/CrossWorks for ARM 2.0/lib/libc_v4t_a_le.a(memcpy.o)
 .ARM.attributes
                0x00000680       0x10 C:/Program Files/Rowley Associates Limited/CrossWorks for ARM 2.0/lib/libc_v4t_a_le.a(memset.o)
 .ARM.attributes
                0x00000690       0x10 C:/Program Files/Rowley Associates Limited/CrossWorks for ARM 2.0/lib/libc_v4t_a_le.a(strcpy.o)
 .ARM.attributes
                0x000006a0       0x10 C:/Program Files/Rowley Associates Limited/CrossWorks for ARM 2.0/lib/libc_v4t_a_le.a(strcmp.o)
 .ARM.attributes
                0x000006b0       0x10 C:/Program Files/Rowley Associates Limited/CrossWorks for ARM 2.0/lib/libc_v4t_a_le.a(memcmp.o)
 .ARM.attributes
                0x000006c0       0x10 C:/Program Files/Rowley Associates Limited/CrossWorks for ARM 2.0/lib/libc_v4t_a_le.a(strcat.o)
 .ARM.attributes
                0x000006d0       0x10 C:/Program Files/Rowley Associates Limited/CrossWorks for ARM 2.0/lib/libc_v4t_a_le.a(strchr.o)
 .ARM.attributes
                0x000006e0       0x10 C:/Program Files/Rowley Associates Limited/CrossWorks for ARM 2.0/lib/libc_v4t_a_le.a(strncmp.o)
 .ARM.attributes
                0x000006f0       0x10 C:/Program Files/Rowley Associates Limited/CrossWorks for ARM 2.0/lib/libc_v4t_a_le.a(strncpy.o)
 .ARM.attributes
                0x00000700       0x10 C:/Program Files/Rowley Associates Limited/CrossWorks for ARM 2.0/lib/libc_v4t_a_le.a(strrchr.o)
 .ARM.attributes
                0x00000710       0x10 C:/Program Files/Rowley Associates Limited/CrossWorks for ARM 2.0/lib/libc_v4t_a_le.a(strstr.o)
 .ARM.attributes
                0x00000720       0x10 C:/Program Files/Rowley Associates Limited/CrossWorks for ARM 2.0/lib/libc_v4t_a_le.a(ctype.o)
 .ARM.attributes
                0x00000730       0x10 C:/Program Files/Rowley Associates Limited/CrossWorks for ARM 2.0/lib/libc_v4t_a_le.a(malloc.o)
 .ARM.attributes
                0x00000740       0x10 C:/Program Files/Rowley Associates Limited/CrossWorks for ARM 2.0/lib/libc_v4t_a_le.a(atoi.o)
 .ARM.attributes
                0x00000750       0x10 C:/Program Files/Rowley Associates Limited/CrossWorks for ARM 2.0/lib/libc_v4t_a_le.a(time.o)
 .ARM.attributes
                0x00000760       0x10 C:/Program Files/Rowley Associates Limited/CrossWorks for ARM 2.0/lib/libc_v4t_a_le.a(asctime.o)
 .ARM.attributes
                0x00000770       0x10 C:/Program Files/Rowley Associates Limited/CrossWorks for ARM 2.0/lib/libc_v4t_a_le.a(strftime.o)
 .ARM.attributes
                0x00000780       0x10 C:/Program Files/Rowley Associates Limited/CrossWorks for ARM 2.0/lib/libc_v4t_a_le.a(div.o)
 .ARM.attributes
                0x00000790       0x10 C:/Program Files/Rowley Associates Limited/CrossWorks for ARM 2.0/lib/libc_v4t_a_le.a(strtol.o)
 .ARM.attributes
                0x000007a0       0x10 C:/Program Files/Rowley Associates Limited/CrossWorks for ARM 2.0/lib/libc_v4t_a_le.a(ldiv.o)
 .ARM.attributes
                0x000007b0       0x10 C:/Program Files/Rowley Associates Limited/CrossWorks for ARM 2.0/lib/libc_v4t_a_le.a(__int32_mod.o)
 .ARM.attributes
                0x000007c0       0x10 C:/Program Files/Rowley Associates Limited/CrossWorks for ARM 2.0/lib/libc_v4t_a_le.a(__strtoul.o)
 .ARM.attributes
                0x000007d0       0x10 C:/Program Files/Rowley Associates Limited/CrossWorks for ARM 2.0/lib/libc_v4t_a_le.a(__digit.o)
 .ARM.attributes
                0x000007e0       0x10 C:/Program Files/Rowley Associates Limited/CrossWorks for ARM 2.0/lib/libdebugio_v4t_a_le.a(debug_printf.o)
 .ARM.attributes
                0x000007f0       0x10 C:/Program Files/Rowley Associates Limited/CrossWorks for ARM 2.0/lib/libc_targetio_impl_v4t_a_le.a(putchar.o)
 .ARM.attributes
                0x00000800       0x10 C:/Program Files/Rowley Associates Limited/CrossWorks for ARM 2.0/lib/libc_user_libc_v4t_a_le.a(user_libc.o)
 .ARM.attributes
                0x00000810       0x10 C:/Program Files/Rowley Associates Limited/CrossWorks for ARM 2.0/lib/libdebugio_dcc_v4t_a_le.a(dcc_debug_operations.o)
 .ARM.attributes
                0x00000820       0x10 C:/Program Files/Rowley Associates Limited/CrossWorks for ARM 2.0/lib/libdebugio_dcc_v4t_a_le.a(libarmdi_dcc_write.o)
 .ARM.attributes
                0x00000830       0x10 C:/Program Files/Rowley Associates Limited/CrossWorks for ARM 2.0/lib/libdebugio_dcc_v4t_a_le.a(libarm_run_dcc_port_server.o)
 .ARM.attributes
                0x00000840       0x10 C:/Program Files/Rowley Associates Limited/CrossWorks for ARM 2.0/lib/libdebugio_dcc_v4t_a_le.a(libarmdi_dcc_read.o)
